(lp0
I88
acnumpy.core.multiarray
scalar
p1
(cnumpy
dtype
p2
(S'i4'
p3
I0
I1
tp4
Rp5
(I3
S'<'
p6
NNNI-1
I-1
I0
tp7
bS'\x00\x01\x00\x00'
p8
tp9
Rp10
aI214
aI235
aI236
aI323
aI193
aI235
aI235
aI93
ag1
(g5
S'p\x00\x00\x00'
p11
tp12
Rp13
aI236
aI214
aI214
aI214
aI256
aI324
aI324
aI193
aI214
ag1
(g5
S'!\x01\x00\x00'
p14
tp15
Rp16
aI193
aI235
ag1
(g5
S'E\x01\x00\x00'
p17
tp18
Rp19
aI214
aI214
aI214
aI235
aI152
ag1
(g5
S'D\x01\x00\x00'
p20
tp21
Rp22
ag1
(g5
S'D\x01\x00\x00'
p23
tp24
Rp25
aI214
aI214
aI318
aI235
aI193
ag1
(g5
S'\xb0\x00\x00\x00'
p26
tp27
Rp28
ag1
(g5
S'-\x01\x00\x00'
p29
tp30
Rp31
aI235
aI321
aI114
aI235
aI193
aI214
aI193
ag1
(g5
S'\x84\x00\x00\x00'
p32
tp33
Rp34
aI323
aI214
aI324
aI173
aI193
aI214
aI193
aI214
aI193
aI277
aI89
aI214
aI193
ag1
(g5
S'C\x01\x00\x00'
p35
tp36
Rp37
aI324
ag1
(g5
S'\x80\x01\x00\x00'
p38
tp39
Rp40
aI93
aI193
aI93
aI214
aI325
aI172
ag1
(g5
S'\xc1\x00\x00\x00'
p41
tp42
Rp43
aI193
aI214
aI235
aI235
aI93
aI235
aI193
aI193
aI172
aI172
aI214
ag1
(g5
S'/\x01\x00\x00'
p44
tp45
Rp46
aI193
aI193
ag1
(g5
S'D\x01\x00\x00'
p47
tp48
Rp49
aI193
ag1
(g5
S'\x98\x00\x00\x00'
p50
tp51
Rp52
ag1
(g5
S'C\x01\x00\x00'
p53
tp54
Rp55
aI151
ag1
(g5
S'D\x01\x00\x00'
p56
tp57
Rp58
aI235
aI235
aI235
aI193
aI193
aI381
aI235
ag1
(g5
S'\xeb\x00\x00\x00'
p59
tp60
Rp61
aI91
ag1
(g5
S'\xd6\x00\x00\x00'
p62
tp63
Rp64
aI235
a.