(lp0
cnumpy.core.multiarray
scalar
p1
(cnumpy
dtype
p2
(S'i4'
p3
I0
I1
tp4
Rp5
(I3
S'<'
p6
NNNI-1
I-1
I0
tp7
bS'F\x01\x00\x00'
p8
tp9
Rp10
ag1
(g5
S'`\x00\x00\x00'
p11
tp12
Rp13
aI92
aI113
ag1
(g5
S'_\x00\x00\x00'
p14
tp15
Rp16
ag1
(g5
S']\x00\x00\x00'
p17
tp18
Rp19
aI324
aI214
ag1
(g5
S'D\x01\x00\x00'
p20
tp21
Rp22
ag1
(g5
S'/\x01\x00\x00'
p23
tp24
Rp25
aI302
ag1
(g5
S'p\x00\x00\x00'
p26
tp27
Rp28
ag1
(g5
S'F\x01\x00\x00'
p29
tp30
Rp31
ag1
(g5
S'D\x01\x00\x00'
p32
tp33
Rp34
aI257
ag1
(g5
S'_\x00\x00\x00'
p35
tp36
Rp37
aI278
ag1
(g5
S']\x00\x00\x00'
p38
tp39
Rp40
ag1
(g5
S'E\x01\x00\x00'
p41
tp42
Rp43
aI93
ag1
(g5
S'E\x01\x00\x00'
p44
tp45
Rp46
aI193
ag1
(g5
S'E\x01\x00\x00'
p47
tp48
Rp49
aI235
aI345
ag1
(g5
S'2\x01\x00\x00'
p50
tp51
Rp52
ag1
(g5
S'E\x01\x00\x00'
p53
tp54
Rp55
aI152
aI214
aI281
ag1
(g5
S']\x00\x00\x00'
p56
tp57
Rp58
ag1
(g5
S'B\x01\x00\x00'
p59
tp60
Rp61
aI172
aI300
aI327
aI324
aI172
aI236
aI110
aI163
ag1
(g5
S'-\x01\x00\x00'
p62
tp63
Rp64
ag1
(g5
S'F\x01\x00\x00'
p65
tp66
Rp67
aI235
aI93
ag1
(g5
S']\x00\x00\x00'
p68
tp69
Rp70
aI326
aI256
aI193
aI235
aI161
aI193
ag1
(g5
S']\x00\x00\x00'
p71
tp72
Rp73
ag1
(g5
S'-\x01\x00\x00'
p74
tp75
Rp76
aI324
aI161
aI93
ag1
(g5
S'F\x01\x00\x00'
p77
tp78
Rp79
aI172
ag1
(g5
S']\x00\x00\x00'
p80
tp81
Rp82
aI172
ag1
(g5
S'\x86\x00\x00\x00'
p83
tp84
Rp85
aI324
aI235
aI172
aI96
aI214
aI193
aI323
aI93
aI90
ag1
(g5
S'^\x00\x00\x00'
p86
tp87
Rp88
aI92
aI236
ag1
(g5
S'E\x01\x00\x00'
p89
tp90
Rp91
aI112
ag1
(g5
S'D\x01\x00\x00'
p92
tp93
Rp94
aI214
aI287
ag1
(g5
S'^\x00\x00\x00'
p95
tp96
Rp97
ag1
(g5
S'C\x01\x00\x00'
p98
tp99
Rp100
aI301
ag1
(g5
S'_\x00\x00\x00'
p101
tp102
Rp103
ag1
(g5
S'C\x01\x00\x00'
p104
tp105
Rp106
aI321
ag1
(g5
S'.\x01\x00\x00'
p107
tp108
Rp109
ag1
(g5
S'-\x01\x00\x00'
p110
tp111
Rp112
aI214
ag1
(g5
S']\x00\x00\x00'
p113
tp114
Rp115
aI235
ag1
(g5
S'F\x01\x00\x00'
p116
tp117
Rp118
ag1
(g5
S'E\x01\x00\x00'
p119
tp120
Rp121
ag1
(g5
S'_\x00\x00\x00'
p122
tp123
Rp124
ag1
(g5
S'E\x01\x00\x00'
p125
tp126
Rp127
ag1
(g5
S']\x00\x00\x00'
p128
tp129
Rp130
aI288
ag1
(g5
S'D\x01\x00\x00'
p131
tp132
Rp133
ag1
(g5
S'_\x00\x00\x00'
p134
tp135
Rp136
aI162
ag1
(g5
S'`\x00\x00\x00'
p137
tp138
Rp139
ag1
(g5
S']\x00\x00\x00'
p140
tp141
Rp142
a.