(lp0
cnumpy.core.multiarray
scalar
p1
(cnumpy
dtype
p2
(S'i4'
p3
I0
I1
tp4
Rp5
(I3
S'<'
p6
NNNI-1
I-1
I0
tp7
bS'\xd7\x00\x00\x00'
p8
tp9
Rp10
aI254
ag1
(g5
S'\xac\x00\x00\x00'
p11
tp12
Rp13
aI173
ag1
(g5
S'\xad\x00\x00\x00'
p14
tp15
Rp16
aI174
aI171
aI175
aI130
ag1
(g5
S'\xac\x00\x00\x00'
p17
tp18
Rp19
aI177
aI214
aI175
aI171
aI209
aI172
aI172
aI172
aI175
aI135
aI98
ag1
(g5
S'\xaf\x00\x00\x00'
p20
tp21
Rp22
ag1
(g5
S'\xd7\x00\x00\x00'
p23
tp24
Rp25
aI214
aI173
aI175
aI217
aI294
aI170
a.