(lp0
I281
aI279
aI230
aI281
aI281
aI279
aI230
aI279
aI280
aI228
aI228
aI279
aI230
aI279
aI230
aI279
aI230
aI229
aI230
aI229
aI228
aI230
aI279
aI281
aI230
aI279
aI280
aI280
aI229
aI228
aI281
aI230
aI279
aI230
aI228
aI281
aI280
aI229
aI279
aI230
aI279
aI279
aI281
aI281
aI229
aI281
aI280
aI231
aI228
aI230
aI278
aI230
aI230
aI281
aI229
aI281
aI279
aI229
aI229
aI281
aI279
aI279
aI230
aI230
aI229
aI280
aI281
aI230
aI228
aI229
aI279
aI279
aI279
aI228
aI280
aI228
aI229
aI228
aI280
aI282
aI229
aI281
aI229
aI228
aI281
aI281
aI229
aI279
aI228
aI280
aI229
aI228
aI278
aI279
aI228
aI230
aI230
aI230
aI281
aI282
a.