(lp0
I106
aI193
aI214
aI235
aI236
aI323
aI172
aI235
aI214
aI93
acnumpy.core.multiarray
scalar
p1
(cnumpy
dtype
p2
(S'i4'
p3
I0
I1
tp4
Rp5
(I3
S'<'
p6
NNNI-1
I-1
I0
tp7
bS'p\x00\x00\x00'
p8
tp9
Rp10
aI235
aI214
aI214
aI173
aI256
aI324
aI256
ag1
(g5
S'\xd6\x00\x00\x00'
p11
tp12
Rp13
aI214
ag1
(g5
S'D\x01\x00\x00'
p14
tp15
Rp16
aI192
aI214
ag1
(g5
S'E\x01\x00\x00'
p17
tp18
Rp19
aI214
aI235
aI214
aI235
aI151
aI235
aI322
aI214
aI214
aI318
aI235
aI193
aI172
aI323
aI235
aI321
ag1
(g5
S']\x00\x00\x00'
p20
tp21
Rp22
aI277
aI193
aI193
aI193
ag1
(g5
S'\x84\x00\x00\x00'
p23
tp24
Rp25
aI323
aI214
aI324
aI194
aI214
aI235
aI193
aI277
aI193
aI235
aI110
aI214
aI172
aI323
aI324
ag1
(g5
S'\x80\x01\x00\x00'
p26
tp27
Rp28
aI93
aI193
aI111
aI193
ag1
(g5
S'D\x01\x00\x00'
p29
tp30
Rp31
aI172
aI193
aI193
aI214
aI214
aI235
aI93
aI235
aI193
aI94
aI172
aI172
aI214
aI302
aI193
aI214
ag1
(g5
S'D\x01\x00\x00'
p32
tp33
Rp34
aI193
ag1
(g5
S'/\x00\x00\x00'
p35
tp36
Rp37
ag1
(g5
S'C\x01\x00\x00'
p38
tp39
Rp40
aI193
ag1
(g5
S'D\x01\x00\x00'
p41
tp42
Rp43
aI235
aI235
aI235
aI193
aI193
aI381
aI235
aI235
aI91
ag1
(g5
S'\xd6\x00\x00\x00'
p44
tp45
Rp46
aI214
a.