(lp0
I115
acnumpy.core.multiarray
scalar
p1
(cnumpy
dtype
p2
(S'i4'
p3
I0
I1
tp4
Rp5
(I3
S'<'
p6
NNNI-1
I-1
I0
tp7
bS't\x00\x00\x00'
p8
tp9
Rp10
ag1
(g5
S's\x00\x00\x00'
p11
tp12
Rp13
aI116
aI114
aI95
ag1
(g5
S'^\x00\x00\x00'
p14
tp15
Rp16
aI116
aI116
aI94
ag1
(g5
S't\x00\x00\x00'
p17
tp18
Rp19
aI115
aI139
aI95
aI115
aI117
aI93
aI96
aI115
aI95
aI95
aI114
aI115
aI116
ag1
(g5
S'_\x00\x00\x00'
p20
tp21
Rp22
ag1
(g5
S't\x00\x00\x00'
p23
tp24
Rp25
aI117
ag1
(g5
S't\x00\x00\x00'
p26
tp27
Rp28
aI93
aI95
ag1
(g5
S't\x00\x00\x00'
p29
tp30
Rp31
aI117
ag1
(g5
S's\x00\x00\x00'
p32
tp33
Rp34
ag1
(g5
S't\x00\x00\x00'
p35
tp36
Rp37
ag1
(g5
S's\x00\x00\x00'
p38
tp39
Rp40
aI95
ag1
(g5
S't\x00\x00\x00'
p41
tp42
Rp43
aI117
aI95
ag1
(g5
S'u\x00\x00\x00'
p44
tp45
Rp46
aI94
aI95
aI116
ag1
(g5
S't\x00\x00\x00'
p47
tp48
Rp49
aI116
aI94
aI95
aI115
ag1
(g5
S'^\x00\x00\x00'
p50
tp51
Rp52
ag1
(g5
S'_\x00\x00\x00'
p53
tp54
Rp55
aI138
aI139
ag1
(g5
S'\xa1\x00\x00\x00'
p56
tp57
Rp58
ag1
(g5
S'_\x00\x00\x00'
p59
tp60
Rp61
aI116
ag1
(g5
S'H\x00\x00\x00'
p62
tp63
Rp64
ag1
(g5
S's\x00\x00\x00'
p65
tp66
Rp67
aI93
aI138
ag1
(g5
S'^\x00\x00\x00'
p68
tp69
Rp70
aI94
aI116
aI115
aI96
aI96
aI116
aI95
aI95
aI95
aI93
ag1
(g5
S'^\x00\x00\x00'
p71
tp72
Rp73
aI114
aI94
aI96
ag1
(g5
S't\x00\x00\x00'
p74
tp75
Rp76
ag1
(g5
S'u\x00\x00\x00'
p77
tp78
Rp79
aI95
aI95
aI95
aI94
ag1
(g5
S'u\x00\x00\x00'
p80
tp81
Rp82
aI115
aI117
aI95
aI95
aI116
ag1
(g5
S'u\x00\x00\x00'
p83
tp84
Rp85
aI95
aI116
aI116
aI115
aI115
ag1
(g5
S't\x00\x00\x00'
p86
tp87
Rp88
ag1
(g5
S'_\x00\x00\x00'
p89
tp90
Rp91
aI115
aI95
aI117
aI115
ag1
(g5
S't\x00\x00\x00'
p92
tp93
Rp94
aI114
a.