(lp0
I172
acnumpy.core.multiarray
scalar
p1
(cnumpy
dtype
p2
(S'i4'
p3
I0
I1
tp4
Rp5
(I3
S'<'
p6
NNNI-1
I-1
I0
tp7
bS'\xfa\x00\x00\x00'
p8
tp9
Rp10
ag1
(g5
S'\xa8\x00\x00\x00'
p11
tp12
Rp13
aI296
ag1
(g5
S'\x04\x01\x00\x00'
p14
tp15
Rp16
aI226
aI174
aI299
aI135
aI140
aI290
aI234
ag1
(g5
S'P\x01\x00\x00'
p17
tp18
Rp19
aI252
aI253
aI137
aI170
ag1
(g5
S'\x87\x00\x00\x00'
p20
tp21
Rp22
aI143
aI218
aI228
aI136
ag1
(g5
S'\x87\x00\x00\x00'
p23
tp24
Rp25
aI101
aI143
aI192
ag1
(g5
S'\x95\x01\x00\x00'
p26
tp27
Rp28
aI91
aI187
a.