(lp0
I324
aI93
aI92
aI193
aI93
aI93
aI324
aI88
aI214
aI324
aI324
aI214
aI324
aI324
aI277
aI93
aI324
aI112
aI324
aI93
aI323
aI193
aI256
aI324
aI323
aI324
aI324
aI93
aI214
aI302
aI93
aI344
aI324
aI324
aI324
aI324
aI193
aI324
aI68
aI93
aI301
aI235
aI235
aI93
aI93
aI235
aI235
aI193
aI235
aI93
aI193
aI93
aI301
aI324
aI112
aI93
aI324
aI235
aI93
aI93
aI214
aI324
aI235
aI172
aI93
aI214
aI193
aI323
aI93
aI90
aI93
aI93
aI301
aI256
aI112
aI324
aI235
aI324
aI93
aI324
aI235
aI93
aI323
aI302
aI322
aI323
aI214
aI93
aI235
aI324
aI324
aI93
aI324
aI193
aI288
aI324
aI93
aI93
aI93
aI93
a.