(lp0
I96
aI97
aI114
aI113
aI115
aI155
aI93
aI93
aI117
aI115
aI97
aI133
aI95
aI162
aI93
aI160
aI94
aI116
aI92
aI182
aI92
aI94
aI96
aI116
aI93
aI160
aI116
aI99
aI79
aI114
aI116
aI116
aI141
aI91
aI115
aI95
aI114
aI116
aI95
aI96
aI117
aI138
aI116
aI114
aI118
aI115
aI116
aI161
aI94
aI182
aI94
aI162
aI203
aI95
aI160
aI162
aI92
aI93
aI115
aI94
aI115
aI116
aI94
aI98
aI97
aI114
aI114
aI138
aI75
aI116
aI93
aI115
aI117
aI123
aI74
aI117
aI118
aI94
aI95
aI93
aI159
aI115
aI114
aI162
aI93
aI113
aI94
aI139
aI71
aI183
aI121
aI116
aI96
aI95
aI116
aI116
aI112
aI116
aI111
aI115
a.