(lp0
cnumpy.core.multiarray
scalar
p1
(cnumpy
dtype
p2
(S'i4'
p3
I0
I1
tp4
Rp5
(I3
S'<'
p6
NNNI-1
I-1
I0
tp7
bS'\xad\x00\x00\x00'
p8
tp9
Rp10
ag1
(g5
S'\xfc\x00\x00\x00'
p11
tp12
Rp13
ag1
(g5
S'\xd5\x00\x00\x00'
p14
tp15
Rp16
aI176
aI173
aI174
aI171
aI127
aI131
ag1
(g5
S'\x80\x00\x00\x00'
p17
tp18
Rp19
aI175
aI214
aI175
aI171
aI170
aI173
aI171
aI172
aI173
ag1
(g5
S'\xd5\x00\x00\x00'
p20
tp21
Rp22
ag1
(g5
S'\xd8\x00\x00\x00'
p23
tp24
Rp25
aI175
aI215
ag1
(g5
S'\xd5\x00\x00\x00'
p26
tp27
Rp28
aI173
aI175
ag1
(g5
S'\xd6\x00\x00\x00'
p29
tp30
Rp31
aI213
ag1
(g5
S'\xd7\x00\x00\x00'
p32
tp33
Rp34
a.