(lp0
cnumpy.core.multiarray
scalar
p1
(cnumpy
dtype
p2
(S'i4'
p3
I0
I1
tp4
Rp5
(I3
S'<'
p6
NNNI-1
I-1
I0
tp7
bS'\x9a\x00\x00\x00'
p8
tp9
Rp10
aI95
aI94
ag1
(g5
S'\x80\x00\x00\x00'
p11
tp12
Rp13
ag1
(g5
S's\x00\x00\x00'
p14
tp15
Rp16
aI94
ag1
(g5
S'\x85\x00\x00\x00'
p17
tp18
Rp19
aI114
ag1
(g5
S'r\x00\x00\x00'
p20
tp21
Rp22
ag1
(g5
S'\x84\x00\x00\x00'
p23
tp24
Rp25
ag1
(g5
S'\x87\x00\x00\x00'
p26
tp27
Rp28
ag1
(g5
S'\x83\x00\x00\x00'
p29
tp30
Rp31
ag1
(g5
S']\x00\x00\x00'
p32
tp33
Rp34
aI95
aI93
aI113
aI90
aI93
ag1
(g5
S'1\x00\x00\x00'
p35
tp36
Rp37
aI86
ag1
(g5
S's\x00\x00\x00'
p38
tp39
Rp40
aI93
ag1
(g5
S'\x83\x00\x00\x00'
p41
tp42
Rp43
ag1
(g5
S's\x00\x00\x00'
p44
tp45
Rp46
ag1
(g5
S'\x86\x00\x00\x00'
p47
tp48
Rp49
aI71
aI69
aI88
ag1
(g5
S'\x86\x00\x00\x00'
p50
tp51
Rp52
aI114
aI92
aI47
aI94
aI95
aI114
aI93
aI93
aI94
ag1
(g5
S'q\x00\x00\x00'
p53
tp54
Rp55
aI93
aI89
aI92
aI116
ag1
(g5
S'\x98\x00\x00\x00'
p56
tp57
Rp58
aI113
aI114
aI114
ag1
(g5
S'r\x00\x00\x00'
p59
tp60
Rp61
aI116
aI93
aI91
aI114
ag1
(g5
S'\x84\x00\x00\x00'
p62
tp63
Rp64
aI93
ag1
(g5
S'^\x00\x00\x00'
p65
tp66
Rp67
aI114
aI95
aI95
aI114
aI151
aI114
aI94
aI116
ag1
(g5
S'r\x00\x00\x00'
p68
tp69
Rp70
aI133
aI92
aI113
aI95
aI113
aI114
aI95
aI134
aI134
aI93
aI115
ag1
(g5
S't\x00\x00\x00'
p71
tp72
Rp73
aI110
ag1
(g5
S'^\x00\x00\x00'
p74
tp75
Rp76
aI116
aI93
aI93
aI95
aI116
ag1
(g5
S'\x85\x00\x00\x00'
p77
tp78
Rp79
aI92
aI93
aI93
ag1
(g5
S'\x84\x00\x00\x00'
p80
tp81
Rp82
ag1
(g5
S'r\x00\x00\x00'
p83
tp84
Rp85
aI110
ag1
(g5
S'\x86\x00\x00\x00'
p86
tp87
Rp88
aI114
aI134
aI93
aI116
ag1
(g5
S'_\x00\x00\x00'
p89
tp90
Rp91
ag1
(g5
S'r\x00\x00\x00'
p92
tp93
Rp94
aI134
aI88
aI71
a.