(lp0
I172
acnumpy.core.multiarray
scalar
p1
(cnumpy
dtype
p2
(S'i4'
p3
I0
I1
tp4
Rp5
(I3
S'<'
p6
NNNI-1
I-1
I0
tp7
bS'\xfa\x00\x00\x00'
p8
tp9
Rp10
ag1
(g5
S'\xa8\x00\x00\x00'
p11
tp12
Rp13
ag1
(g5
S'\xf3\x00\x00\x00'
p14
tp15
Rp16
aI260
aI226
aI174
aI222
aI135
aI140
aI290
aI234
ag1
(g5
S'P\x01\x00\x00'
p17
tp18
Rp19
aI252
aI295
aI137
aI170
ag1
(g5
S'\x87\x00\x00\x00'
p20
tp21
Rp22
ag1
(g5
S'\xd0\x00\x00\x00'
p23
tp24
Rp25
aI218
aI228
ag1
(g5
S'\xb1\x00\x00\x00'
p26
tp27
Rp28
ag1
(g5
S'\x87\x00\x00\x00'
p29
tp30
Rp31
aI101
aI143
aI192
ag1
(g5
S'\x95\x01\x00\x00'
p32
tp33
Rp34
aI91
aI187
a.