(lp0
I66
aI193
aI235
aI235
acnumpy.core.multiarray
scalar
p1
(cnumpy
dtype
p2
(S'i4'
p3
I0
I1
tp4
Rp5
(I3
S'<'
p6
NNNI-1
I-1
I0
tp7
bS'\x01\x01\x00\x00'
p8
tp9
Rp10
aI321
aI193
aI235
aI214
aI93
aI256
aI235
aI236
aI214
aI214
ag1
(g5
S'\xd6\x00\x00\x00'
p11
tp12
Rp13
aI256
aI214
ag1
(g5
S'\xd6\x00\x00\x00'
p14
tp15
Rp16
aI193
aI277
aI192
aI214
ag1
(g5
S'D\x01\x00\x00'
p17
tp18
Rp19
aI235
aI235
aI214
aI214
aI152
aI87
aI343
aI94
aI194
aI318
aI214
aI193
aI172
aI302
aI235
aI321
aI214
aI235
aI193
aI214
aI193
ag1
(g5
S'\x84\x00\x00\x00'
p20
tp21
Rp22
aI214
aI151
aI324
aI93
aI26
aI259
aI172
ag1
(g5
S'\x80\x01\x00\x00'
p23
tp24
Rp25
aI193
ag1
(g5
S'\xeb\x00\x00\x00'
p26
tp27
Rp28
aI193
aI214
ag1
(g5
S'\x97\x00\x00\x00'
p29
tp30
Rp31
ag1
(g5
S' \x01\x00\x00'
p32
tp33
Rp34
aI324
ag1
(g5
S'i\x01\x00\x00'
p35
tp36
Rp37
ag1
(g5
S'_\x00\x00\x00'
p38
tp39
Rp40
aI191
aI214
aI214
ag1
(g5
S'<\x01\x00\x00'
p41
tp42
Rp43
aI95
aI193
aI325
aI214
ag1
(g5
S'2\x00\x00\x00'
p44
tp45
Rp46
aI256
ag1
(g5
S']\x00\x00\x00'
p47
tp48
Rp49
aI193
ag1
(g5
S'\x83\x01\x00\x00'
p50
tp51
Rp52
aI256
aI151
aI193
aI256
aI363
aI324
aI172
aI324
aI193
aI193
ag1
(g5
S'C\x01\x00\x00'
p53
tp54
Rp55
aI193
ag1
(g5
S'B\x01\x00\x00'
p56
tp57
Rp58
aI235
aI235
ag1
(g5
S')\x01\x00\x00'
p59
tp60
Rp61
aI193
aI193
aI235
ag1
(g5
S'\xd6\x00\x00\x00'
p62
tp63
Rp64
ag1
(g5
S'\xeb\x00\x00\x00'
p65
tp66
Rp67
aI92
aI235
aI214
a.