(lp0
I97
aI97
aI117
aI132
aI140
acnumpy.core.multiarray
scalar
p1
(cnumpy
dtype
p2
(S'i4'
p3
I0
I1
tp4
Rp5
(I3
S'<'
p6
NNNI-1
I-1
I0
tp7
bS'\x9a\x00\x00\x00'
p8
tp9
Rp10
aI116
ag1
(g5
S's\x00\x00\x00'
p11
tp12
Rp13
aI117
aI118
ag1
(g5
S'a\x00\x00\x00'
p14
tp15
Rp16
ag1
(g5
S'`\x00\x00\x00'
p17
tp18
Rp19
aI139
ag1
(g5
S'\xa1\x00\x00\x00'
p20
tp21
Rp22
aI141
ag1
(g5
S'a\x00\x00\x00'
p23
tp24
Rp25
aI119
ag1
(g5
S't\x00\x00\x00'
p26
tp27
Rp28
aI51
aI181
ag1
(g5
S'0\x00\x00\x00'
p29
tp30
Rp31
aI114
aI117
ag1
(g5
S'v\x00\x00\x00'
p32
tp33
Rp34
aI96
aI138
aI117
ag1
(g5
S'b\x00\x00\x00'
p35
tp36
Rp37
ag1
(g5
S'O\x00\x00\x00'
p38
tp39
Rp40
ag1
(g5
S'\x89\x00\x00\x00'
p41
tp42
Rp43
aI116
aI117
ag1
(g5
S'\x8b\x00\x00\x00'
p44
tp45
Rp46
aI94
aI95
aI76
aI117
aI117
aI95
aI140
aI117
ag1
(g5
S'\x8a\x00\x00\x00'
p47
tp48
Rp49
aI116
aI96
ag1
(g5
S'\x8b\x00\x00\x00'
p50
tp51
Rp52
aI119
aI138
ag1
(g5
S'\x8c\x00\x00\x00'
p53
tp54
Rp55
ag1
(g5
S'`\x00\x00\x00'
p56
tp57
Rp58
aI181
aI89
aI162
aI203
ag1
(g5
S't\x00\x00\x00'
p59
tp60
Rp61
aI160
ag1
(g5
S']\x00\x00\x00'
p62
tp63
Rp64
aI6
aI95
ag1
(g5
S'\x8a\x00\x00\x00'
p65
tp66
Rp67
aI94
aI117
aI116
aI162
ag1
(g5
S'`\x00\x00\x00'
p68
tp69
Rp70
aI97
ag1
(g5
S'`\x00\x00\x00'
p71
tp72
Rp73
aI117
aI95
aI120
aI117
ag1
(g5
S'^\x00\x00\x00'
p74
tp75
Rp76
aI116
ag1
(g5
S'\x8a\x00\x00\x00'
p77
tp78
Rp79
ag1
(g5
S'{\x00\x00\x00'
p80
tp81
Rp82
ag1
(g5
S'J\x00\x00\x00'
p83
tp84
Rp85
aI140
ag1
(g5
S'v\x00\x00\x00'
p86
tp87
Rp88
aI101
aI95
ag1
(g5
S'v\x00\x00\x00'
p89
tp90
Rp91
ag1
(g5
S'\xa1\x00\x00\x00'
p92
tp93
Rp94
aI115
aI117
aI95
aI94
ag1
(g5
S'`\x00\x00\x00'
p95
tp96
Rp97
ag1
(g5
S'_\x00\x00\x00'
p98
tp99
Rp100
aI139
ag1
(g5
S']\x00\x00\x00'
p101
tp102
Rp103
aI162
aI121
aI94
aI140
aI95
aI71
aI94
ag1
(g5
S'a\x00\x00\x00'
p104
tp105
Rp106
aI116
aI115
aI114
a.