(lp0
I106
aI193
aI214
aI235
aI236
aI323
aI193
aI235
aI214
aI93
acnumpy.core.multiarray
scalar
p1
(cnumpy
dtype
p2
(S'i4'
p3
I0
I1
tp4
Rp5
(I3
S'<'
p6
NNNI-1
I-1
I0
tp7
bS'p\x00\x00\x00'
p8
tp9
Rp10
aI235
aI214
aI214
aI173
aI256
ag1
(g5
S'D\x01\x00\x00'
p11
tp12
Rp13
aI256
ag1
(g5
S'\xd6\x00\x00\x00'
p14
tp15
Rp16
aI214
ag1
(g5
S'D\x01\x00\x00'
p17
tp18
Rp19
aI192
aI214
ag1
(g5
S'D\x01\x00\x00'
p20
tp21
Rp22
aI214
aI235
aI214
aI235
aI173
aI235
aI322
aI214
aI214
aI318
aI235
aI193
aI172
ag1
(g5
S'A\x01\x00\x00'
p23
tp24
Rp25
aI235
aI321
ag1
(g5
S'r\x00\x00\x00'
p26
tp27
Rp28
aI277
aI193
aI193
aI193
ag1
(g5
S'o\x00\x00\x00'
p29
tp30
Rp31
ag1
(g5
S'C\x01\x00\x00'
p32
tp33
Rp34
aI214
aI324
aI194
aI214
aI235
aI172
aI277
aI193
aI235
aI110
aI214
ag1
(g5
S'\xc1\x00\x00\x00'
p35
tp36
Rp37
aI323
ag1
(g5
S'D\x01\x00\x00'
p38
tp39
Rp40
ag1
(g5
S'\x94\x01\x00\x00'
p41
tp42
Rp43
aI93
aI235
aI111
aI193
ag1
(g5
S'D\x01\x00\x00'
p44
tp45
Rp46
aI172
aI193
aI193
aI214
aI235
aI235
ag1
(g5
S']\x00\x00\x00'
p47
tp48
Rp49
aI235
aI192
aI93
aI172
aI150
aI214
aI302
aI182
aI193
ag1
(g5
S'E\x01\x00\x00'
p50
tp51
Rp52
aI193
ag1
(g5
S'/\x00\x00\x00'
p53
tp54
Rp55
ag1
(g5
S'C\x01\x00\x00'
p56
tp57
Rp58
aI193
ag1
(g5
S'D\x01\x00\x00'
p59
tp60
Rp61
aI235
aI235
aI235
aI193
aI193
aI381
aI214
aI235
aI91
ag1
(g5
S'\xd6\x00\x00\x00'
p62
tp63
Rp64
aI214
a.