(lp0
I66
aI193
aI235
aI235
aI235
acnumpy.core.multiarray
scalar
p1
(cnumpy
dtype
p2
(S'i4'
p3
I0
I1
tp4
Rp5
(I3
S'<'
p6
NNNI-1
I-1
I0
tp7
bS'\x00\x01\x00\x00'
p8
tp9
Rp10
aI214
aI214
aI193
aI363
ag1
(g5
S'p\x00\x00\x00'
p11
tp12
Rp13
aI339
aI280
aI214
aI152
ag1
(g5
S'\xd6\x00\x00\x00'
p14
tp15
Rp16
aI257
aI193
aI214
aI113
aI344
aI342
aI235
aI281
aI256
aI193
aI114
ag1
(g5
S'\x19\x00\x00\x00'
p17
tp18
Rp19
aI153
ag1
(g5
S'\x08\x01\x00\x00'
p20
tp21
Rp22
aI234
ag1
(g5
S'^\x00\x00\x00'
p23
tp24
Rp25
aI174
ag1
(g5
S'.\x01\x00\x00'
p26
tp27
Rp28
aI302
aI172
ag1
(g5
S'\x7f\x01\x00\x00'
p29
tp30
Rp31
aI324
aI235
aI322
ag1
(g5
S'B\x01\x00\x00'
p32
tp33
Rp34
aI358
ag1
(g5
S'\xa2\x00\x00\x00'
p35
tp36
Rp37
aI235
aI235
aI111
aI321
ag1
(g5
S'2\x01\x00\x00'
p38
tp39
Rp40
aI235
aI93
aI235
aI324
aI127
ag1
(g5
S'\x80\x01\x00\x00'
p41
tp42
Rp43
ag1
(g5
S'\xd6\x00\x00\x00'
p44
tp45
Rp46
aI214
ag1
(g5
S'\xc3\x00\x00\x00'
p47
tp48
Rp49
aI214
aI172
aI288
aI428
aI382
aI95
aI214
ag1
(g5
S'\x95\x00\x00\x00'
p50
tp51
Rp52
aI214
ag1
(g5
S'<\x01\x00\x00'
p53
tp54
Rp55
aI131
aI235
aI282
aI171
ag1
(g5
S'2\x00\x00\x00'
p56
tp57
Rp58
aI235
aI95
ag1
(g5
S'E\x01\x00\x00'
p59
tp60
Rp61
ag1
(g5
S'\x83\x01\x00\x00'
p62
tp63
Rp64
aI214
ag1
(g5
S'/\x01\x00\x00'
p65
tp66
Rp67
aI235
aI193
aI363
aI106
aI193
ag1
(g5
S'\x14\x01\x00\x00'
p68
tp69
Rp70
aI193
aI277
aI298
aI214
aI151
aI234
ag1
(g5
S'\x02\x01\x00\x00'
p71
tp72
Rp73
aI296
aI384
aI65
ag1
(g5
S'\xfc\x00\x00\x00'
p74
tp75
Rp76
ag1
(g5
S'\xd6\x00\x00\x00'
p77
tp78
Rp79
ag1
(g5
S'\xc2\x00\x00\x00'
p80
tp81
Rp82
aI193
aI193
aI172
a.