(lp0
I171
aI171
aI139
acnumpy.core.multiarray
scalar
p1
(cnumpy
dtype
p2
(S'i4'
p3
I0
I1
tp4
Rp5
(I3
S'<'
p6
NNNI-1
I-1
I0
tp7
bS'\xa9\x00\x00\x00'
p8
tp9
Rp10
ag1
(g5
S'\xaa\x00\x00\x00'
p11
tp12
Rp13
aI171
aI171
aI139
aI139
aI170
aI139
aI140
ag1
(g5
S'\x8d\x00\x00\x00'
p14
tp15
Rp16
aI170
ag1
(g5
S'\x8b\x00\x00\x00'
p17
tp18
Rp19
aI171
aI139
aI171
aI170
aI138
aI140
ag1
(g5
S'\x8a\x00\x00\x00'
p20
tp21
Rp22
aI140
aI140
aI138
aI171
aI137
aI168
aI171
ag1
(g5
S'\x8a\x00\x00\x00'
p23
tp24
Rp25
aI139
aI138
aI170
aI171
aI170
aI140
aI140
ag1
(g5
S'\x8c\x00\x00\x00'
p26
tp27
Rp28
aI171
ag1
(g5
S'\xa9\x00\x00\x00'
p29
tp30
Rp31
ag1
(g5
S'\xaa\x00\x00\x00'
p32
tp33
Rp34
aI171
ag1
(g5
S'\xaa\x00\x00\x00'
p35
tp36
Rp37
aI171
aI171
aI140
ag1
(g5
S'\x8b\x00\x00\x00'
p38
tp39
Rp40
ag1
(g5
S'\xac\x00\x00\x00'
p41
tp42
Rp43
aI139
aI171
aI140
aI169
aI140
aI140
ag1
(g5
S'\xaa\x00\x00\x00'
p44
tp45
Rp46
aI171
aI140
ag1
(g5
S'\xa8\x00\x00\x00'
p47
tp48
Rp49
aI140
ag1
(g5
S'\xab\x00\x00\x00'
p50
tp51
Rp52
aI171
aI140
aI140
aI172
ag1
(g5
S'\xab\x00\x00\x00'
p53
tp54
Rp55
aI140
aI140
aI138
ag1
(g5
S'\x8c\x00\x00\x00'
p56
tp57
Rp58
aI138
aI140
aI171
ag1
(g5
S'\x8b\x00\x00\x00'
p59
tp60
Rp61
ag1
(g5
S'\xab\x00\x00\x00'
p62
tp63
Rp64
ag1
(g5
S'\x8c\x00\x00\x00'
p65
tp66
Rp67
aI139
ag1
(g5
S'\xab\x00\x00\x00'
p68
tp69
Rp70
aI139
aI141
aI171
aI172
aI138
aI171
ag1
(g5
S'\x8c\x00\x00\x00'
p71
tp72
Rp73
aI140
aI140
aI171
aI171
aI139
aI139
aI138
aI138
ag1
(g5
S'\xab\x00\x00\x00'
p74
tp75
Rp76
aI141
aI171
aI171
aI138
aI171
aI140
ag1
(g5
S'\x8b\x00\x00\x00'
p77
tp78
Rp79
a.