(lp0
I296
acnumpy.core.multiarray
scalar
p1
(cnumpy
dtype
p2
(S'i4'
p3
I0
I1
tp4
Rp5
(I3
S'<'
p6
NNNI-1
I-1
I0
tp7
bS'r\x00\x00\x00'
p8
tp9
Rp10
aI116
ag1
(g5
S'\xa1\x00\x00\x00'
p11
tp12
Rp13
aI132
aI162
ag1
(g5
S'1\x01\x00\x00'
p14
tp15
Rp16
aI233
ag1
(g5
S'\x8d\x00\x00\x00'
p17
tp18
Rp19
aI305
ag1
(g5
S'F\x01\x00\x00'
p20
tp21
Rp22
aI141
aI321
aI286
aI287
ag1
(g5
S'L\x00\x00\x00'
p23
tp24
Rp25
ag1
(g5
S'\t\x01\x00\x00'
p26
tp27
Rp28
aI94
aI308
aI96
ag1
(g5
S'[\x01\x00\x00'
p29
tp30
Rp31
ag1
(g5
S'\x97\x00\x00\x00'
p32
tp33
Rp34
ag1
(g5
S'"\x01\x00\x00'
p35
tp36
Rp37
ag1
(g5
S'F\x01\x00\x00'
p38
tp39
Rp40
aI277
ag1
(g5
S'F\x01\x00\x00'
p41
tp42
Rp43
aI288
ag1
(g5
S'a\x00\x00\x00'
p44
tp45
Rp46
aI288
aI300
ag1
(g5
S'F\x01\x00\x00'
p47
tp48
Rp49
aI286
aI276
aI277
aI265
ag1
(g5
S'F\x01\x00\x00'
p50
tp51
Rp52
aI203
ag1
(g5
S'\x1f\x01\x00\x00'
p53
tp54
Rp55
aI131
aI163
ag1
(g5
S'\xeb\x00\x00\x00'
p56
tp57
Rp58
aI279
aI245
aI76
ag1
(g5
S'\x0e\x00\x00\x00'
p59
tp60
Rp61
aI237
aI163
ag1
(g5
S'\xb6\x00\x00\x00'
p62
tp63
Rp64
ag1
(g5
S'8\x00\x00\x00'
p65
tp66
Rp67
aI75
ag1
(g5
S'\n\x01\x00\x00'
p68
tp69
Rp70
ag1
(g5
S'\xb6\x00\x00\x00'
p71
tp72
Rp73
ag1
(g5
S'C\x01\x00\x00'
p74
tp75
Rp76
ag1
(g5
S'2\x01\x00\x00'
p77
tp78
Rp79
aI111
aI75
aI321
ag1
(g5
S'\x02\x01\x00\x00'
p80
tp81
Rp82
ag1
(g5
S'\x8f\x00\x00\x00'
p83
tp84
Rp85
aI162
aI140
aI348
ag1
(g5
S'\x1e\x01\x00\x00'
p86
tp87
Rp88
aI297
aI289
aI96
aI203
aI265
aI95
aI160
aI203
ag1
(g5
S'x\x00\x00\x00'
p89
tp90
Rp91
aI163
aI280
aI98
aI289
aI214
ag1
(g5
S'3\x01\x00\x00'
p92
tp93
Rp94
aI163
aI305
ag1
(g5
S'u\x00\x00\x00'
p95
tp96
Rp97
ag1
(g5
S'\xa3\x00\x00\x00'
p98
tp99
Rp100
aI245
aI285
aI301
ag1
(g5
S'n\x01\x00\x00'
p101
tp102
Rp103
aI137
aI266
aI288
ag1
(g5
S'6\x01\x00\x00'
p104
tp105
Rp106
ag1
(g5
S'G\x01\x00\x00'
p107
tp108
Rp109
aI70
ag1
(g5
S'G\x01\x00\x00'
p110
tp111
Rp112
aI334
aI193
aI236
aI93
aI152
aI119
ag1
(g5
S'G\x00\x00\x00'
p113
tp114
Rp115
a.