(lp0
I327
acnumpy.core.multiarray
scalar
p1
(cnumpy
dtype
p2
(S'i4'
p3
I0
I1
tp4
Rp5
(I3
S'<'
p6
NNNI-1
I-1
I0
tp7
bS']\x00\x00\x00'
p8
tp9
Rp10
aI92
aI193
ag1
(g5
S'^\x00\x00\x00'
p11
tp12
Rp13
aI116
ag1
(g5
S'G\x01\x00\x00'
p14
tp15
Rp16
aI193
ag1
(g5
S'F\x01\x00\x00'
p17
tp18
Rp19
ag1
(g5
S'F\x01\x00\x00'
p20
tp21
Rp22
aI235
ag1
(g5
S'q\x00\x00\x00'
p23
tp24
Rp25
ag1
(g5
S'E\x01\x00\x00'
p26
tp27
Rp28
ag1
(g5
S'D\x01\x00\x00'
p29
tp30
Rp31
aI235
ag1
(g5
S'`\x00\x00\x00'
p32
tp33
Rp34
ag1
(g5
S'\x8b\x00\x00\x00'
p35
tp36
Rp37
aI93
ag1
(g5
S'!\x01\x00\x00'
p38
tp39
Rp40
ag1
(g5
S']\x00\x00\x00'
p41
tp42
Rp43
ag1
(g5
S'D\x01\x00\x00'
p44
tp45
Rp46
aI193
aI324
aI287
ag1
(g5
S'B\x01\x00\x00'
p47
tp48
Rp49
ag1
(g5
S'F\x01\x00\x00'
p50
tp51
Rp52
ag1
(g5
S'D\x01\x00\x00'
p53
tp54
Rp55
aI163
aI235
ag1
(g5
S'D\x01\x00\x00'
p56
tp57
Rp58
ag1
(g5
S'_\x00\x00\x00'
p59
tp60
Rp61
ag1
(g5
S'B\x01\x00\x00'
p62
tp63
Rp64
aI214
aI245
aI326
aI326
aI193
aI287
aI193
ag1
(g5
S',\x01\x00\x00'
p65
tp66
Rp67
ag1
(g5
S'B\x01\x00\x00'
p68
tp69
Rp70
aI193
aI235
ag1
(g5
S'`\x00\x00\x00'
p71
tp72
Rp73
aI95
aI327
aI214
aI193
aI235
aI193
aI193
ag1
(g5
S'G\x00\x00\x00'
p74
tp75
Rp76
ag1
(g5
S'.\x01\x00\x00'
p77
tp78
Rp79
ag1
(g5
S'G\x01\x00\x00'
p80
tp81
Rp82
aI193
ag1
(g5
S'_\x00\x00\x00'
p83
tp84
Rp85
aI324
ag1
(g5
S'X\x01\x00\x00'
p86
tp87
Rp88
aI93
aI193
aI214
ag1
(g5
S'E\x01\x00\x00'
p89
tp90
Rp91
aI235
aI193
ag1
(g5
S'_\x00\x00\x00'
p92
tp93
Rp94
ag1
(g5
S'_\x00\x00\x00'
p95
tp96
Rp97
aI193
ag1
(g5
S'.\x01\x00\x00'
p98
tp99
Rp100
aI193
ag1
(g5
S'\x84\x00\x00\x00'
p101
tp102
Rp103
ag1
(g5
S'^\x00\x00\x00'
p104
tp105
Rp106
aI95
aI235
ag1
(g5
S'F\x01\x00\x00'
p107
tp108
Rp109
ag1
(g5
S'q\x00\x00\x00'
p110
tp111
Rp112
aI326
aI235
ag1
(g5
S'D\x01\x00\x00'
p113
tp114
Rp115
ag1
(g5
S']\x00\x00\x00'
p116
tp117
Rp118
aI327
ag1
(g5
S'\x03\x01\x00\x00'
p119
tp120
Rp121
aI95
ag1
(g5
S'A\x01\x00\x00'
p122
tp123
Rp124
aI245
ag1
(g5
S'.\x01\x00\x00'
p125
tp126
Rp127
ag1
(g5
S'-\x01\x00\x00'
p128
tp129
Rp130
aI214
ag1
(g5
S'J\x00\x00\x00'
p131
tp132
Rp133
aI235
ag1
(g5
S'E\x01\x00\x00'
p134
tp135
Rp136
aI326
ag1
(g5
S'^\x00\x00\x00'
p137
tp138
Rp139
aI307
aI193
aI235
ag1
(g5
S'G\x01\x00\x00'
p140
tp141
Rp142
ag1
(g5
S']\x00\x00\x00'
p143
tp144
Rp145
aI326
ag1
(g5
S'^\x00\x00\x00'
p146
tp147
Rp148
aI95
a.