(lp0
I296
aI93
aI93
acnumpy.core.multiarray
scalar
p1
(cnumpy
dtype
p2
(S'i4'
p3
I0
I1
tp4
Rp5
(I3
S'<'
p6
NNNI-1
I-1
I0
tp7
bS'\xa1\x00\x00\x00'
p8
tp9
Rp10
aI132
ag1
(g5
S'\x8c\x00\x00\x00'
p11
tp12
Rp13
ag1
(g5
S'1\x01\x00\x00'
p14
tp15
Rp16
aI193
ag1
(g5
S'\x8d\x00\x00\x00'
p17
tp18
Rp19
aI324
aI303
aI75
aI324
aI286
aI287
ag1
(g5
S'L\x00\x00\x00'
p20
tp21
Rp22
ag1
(g5
S'\t\x01\x00\x00'
p23
tp24
Rp25
aI94
aI289
aI95
ag1
(g5
S'[\x01\x00\x00'
p26
tp27
Rp28
aI214
ag1
(g5
S'"\x01\x00\x00'
p29
tp30
Rp31
ag1
(g5
S'l\x01\x00\x00'
p32
tp33
Rp34
aI277
ag1
(g5
S'F\x01\x00\x00'
p35
tp36
Rp37
aI288
aI97
aI286
aI300
ag1
(g5
S'F\x01\x00\x00'
p38
tp39
Rp40
aI277
ag1
(g5
S'+\x01\x00\x00'
p41
tp42
Rp43
aI277
aI265
aI286
aI203
aI345
aI131
aI163
ag1
(g5
S'\xeb\x00\x00\x00'
p44
tp45
Rp46
aI279
aI245
ag1
(g5
S'\x8d\x00\x00\x00'
p47
tp48
Rp49
ag1
(g5
S'\xc1\x00\x00\x00'
p50
tp51
Rp52
aI237
aI163
aI93
ag1
(g5
S'8\x00\x00\x00'
p53
tp54
Rp55
aI75
aI193
ag1
(g5
S'\xb6\x00\x00\x00'
p56
tp57
Rp58
aI302
aI306
aI111
aI75
aI321
ag1
(g5
S'\x02\x01\x00\x00'
p59
tp60
Rp61
ag1
(g5
S'\x8f\x00\x00\x00'
p62
tp63
Rp64
aI162
aI140
aI327
aI323
aI297
aI289
ag1
(g5
S'_\x00\x00\x00'
p65
tp66
Rp67
aI162
aI265
ag1
(g5
S']\x00\x00\x00'
p68
tp69
Rp70
aI160
aI203
ag1
(g5
S'x\x00\x00\x00'
p71
tp72
Rp73
aI163
aI280
aI98
aI324
aI214
ag1
(g5
S'D\x01\x00\x00'
p74
tp75
Rp76
aI163
aI305
aI140
ag1
(g5
S'\xa3\x00\x00\x00'
p77
tp78
Rp79
aI245
ag1
(g5
S' \x01\x00\x00'
p80
tp81
Rp82
aI301
ag1
(g5
S'n\x01\x00\x00'
p83
tp84
Rp85
ag1
(g5
S'^\x00\x00\x00'
p86
tp87
Rp88
aI266
aI288
ag1
(g5
S'6\x01\x00\x00'
p89
tp90
Rp91
ag1
(g5
S'D\x01\x00\x00'
p92
tp93
Rp94
aI70
aI287
aI334
ag1
(g5
S'\xb5\x00\x00\x00'
p95
tp96
Rp97
aI236
aI93
aI152
aI119
aI113
a.