(lp0
cnumpy.core.multiarray
scalar
p1
(cnumpy
dtype
p2
(S'i4'
p3
I0
I1
tp4
Rp5
(I3
S'<'
p6
NNNI-1
I-1
I0
tp7
bS'\x95\x00\x00\x00'
p8
tp9
Rp10
aI193
aI214
aI235
aI235
aI235
aI214
aI214
aI193
aI385
aI90
aI235
aI280
aI235
aI152
ag1
(g5
S'\xd6\x00\x00\x00'
p11
tp12
Rp13
aI278
ag1
(g5
S'\xd6\x00\x00\x00'
p14
tp15
Rp16
aI214
ag1
(g5
S'q\x00\x00\x00'
p17
tp18
Rp19
aI344
aI342
aI235
ag1
(g5
S'D\x01\x00\x00'
p20
tp21
Rp22
aI236
aI194
aI114
ag1
(g5
S'\x19\x00\x00\x00'
p23
tp24
Rp25
aI153
ag1
(g5
S'\t\x01\x00\x00'
p26
tp27
Rp28
aI234
aI117
aI175
ag1
(g5
S'.\x01\x00\x00'
p29
tp30
Rp31
aI302
aI172
ag1
(g5
S'\x7f\x01\x00\x00'
p32
tp33
Rp34
aI302
aI235
aI322
ag1
(g5
S'C\x01\x00\x00'
p35
tp36
Rp37
ag1
(g5
S'f\x01\x00\x00'
p38
tp39
Rp40
ag1
(g5
S'\xa2\x00\x00\x00'
p41
tp42
Rp43
aI235
aI235
aI111
aI257
ag1
(g5
S'5\x01\x00\x00'
p44
tp45
Rp46
aI235
aI93
aI235
aI318
aI128
ag1
(g5
S'\x80\x01\x00\x00'
p47
tp48
Rp49
ag1
(g5
S'\xd6\x00\x00\x00'
p50
tp51
Rp52
aI214
aI172
aI214
aI172
aI235
aI428
ag1
(g5
S'/\x01\x00\x00'
p53
tp54
Rp55
ag1
(g5
S'_\x00\x00\x00'
p56
tp57
Rp58
aI192
aI87
aI214
ag1
(g5
S';\x01\x00\x00'
p59
tp60
Rp61
aI131
aI236
aI282
aI152
ag1
(g5
S'G\x00\x00\x00'
p62
tp63
Rp64
aI235
ag1
(g5
S']\x00\x00\x00'
p65
tp66
Rp67
ag1
(g5
S'D\x01\x00\x00'
p68
tp69
Rp70
ag1
(g5
S'\x83\x01\x00\x00'
p71
tp72
Rp73
aI214
aI261
aI235
aI193
aI345
ag1
(g5
S'\x83\x00\x00\x00'
p74
tp75
Rp76
aI235
ag1
(g5
S'\x14\x01\x00\x00'
p77
tp78
Rp79
aI193
aI277
aI298
aI214
aI151
aI234
ag1
(g5
S'C\x01\x00\x00'
p80
tp81
Rp82
ag1
(g5
S'(\x01\x00\x00'
p83
tp84
Rp85
ag1
(g5
S'Q\x01\x00\x00'
p86
tp87
Rp88
ag1
(g5
S']\x00\x00\x00'
p89
tp90
Rp91
ag1
(g5
S'\xfc\x00\x00\x00'
p92
tp93
Rp94
ag1
(g5
S'\xd6\x00\x00\x00'
p95
tp96
Rp97
ag1
(g5
S'\xc2\x00\x00\x00'
p98
tp99
Rp100
aI193
aI193
aI172
a.