(lp0
I66
aI193
aI235
aI235
aI256
aI321
aI193
aI235
aI214
aI93
aI235
aI235
aI236
aI214
aI214
acnumpy.core.multiarray
scalar
p1
(cnumpy
dtype
p2
(S'i4'
p3
I0
I1
tp4
Rp5
(I3
S'<'
p6
NNNI-1
I-1
I0
tp7
bS'\xd6\x00\x00\x00'
p8
tp9
Rp10
aI236
aI214
ag1
(g5
S'\xd6\x00\x00\x00'
p11
tp12
Rp13
aI193
aI277
aI192
aI214
ag1
(g5
S'D\x01\x00\x00'
p14
tp15
Rp16
aI235
aI235
aI172
aI214
aI152
aI87
aI343
aI94
aI235
aI318
aI214
aI193
aI172
ag1
(g5
S'C\x01\x00\x00'
p17
tp18
Rp19
aI235
aI321
aI214
aI235
aI193
aI214
aI193
ag1
(g5
S'\\\x00\x00\x00'
p20
tp21
Rp22
aI214
aI151
aI277
aI194
ag1
(g5
S'\xad\x00\x00\x00'
p23
tp24
Rp25
aI257
aI172
aI130
aI193
aI277
aI193
aI214
ag1
(g5
S'\xac\x00\x00\x00'
p26
tp27
Rp28
ag1
(g5
S' \x01\x00\x00'
p29
tp30
Rp31
ag1
(g5
S'C\x01\x00\x00'
p32
tp33
Rp34
ag1
(g5
S'\x7f\x01\x00\x00'
p35
tp36
Rp37
aI93
aI193
aI214
aI214
ag1
(g5
S'<\x01\x00\x00'
p38
tp39
Rp40
aI95
aI193
aI365
aI214
ag1
(g5
S'2\x00\x00\x00'
p41
tp42
Rp43
aI256
ag1
(g5
S'^\x00\x00\x00'
p44
tp45
Rp46
aI193
ag1
(g5
S'\x83\x01\x00\x00'
p47
tp48
Rp49
aI256
aI151
aI193
aI256
aI363
aI193
aI193
aI324
aI193
aI214
ag1
(g5
S'4\x01\x00\x00'
p50
tp51
Rp52
aI193
ag1
(g5
S'B\x01\x00\x00'
p53
tp54
Rp55
aI193
aI235
aI281
aI193
ag1
(g5
S'\xae\x00\x00\x00'
p56
tp57
Rp58
aI235
ag1
(g5
S'\xd6\x00\x00\x00'
p59
tp60
Rp61
ag1
(g5
S'\xeb\x00\x00\x00'
p62
tp63
Rp64
aI132
aI214
aI214
a.