(lp0
I334
aI273
acnumpy.core.multiarray
scalar
p1
(cnumpy
dtype
p2
(S'i4'
p3
I0
I1
tp4
Rp5
(I3
S'<'
p6
NNNI-1
I-1
I0
tp7
bS'N\x01\x00\x00'
p8
tp9
Rp10
aI276
aI273
aI273
aI276
aI275
ag1
(g5
S'P\x01\x00\x00'
p11
tp12
Rp13
aI274
aI274
aI275
ag1
(g5
S'\x11\x01\x00\x00'
p14
tp15
Rp16
aI275
aI274
ag1
(g5
S'\x11\x01\x00\x00'
p17
tp18
Rp19
aI336
aI336
ag1
(g5
S'P\x01\x00\x00'
p20
tp21
Rp22
aI273
aI336
ag1
(g5
S'\x13\x01\x00\x00'
p23
tp24
Rp25
aI334
aI334
aI337
aI338
aI275
ag1
(g5
S'P\x01\x00\x00'
p26
tp27
Rp28
aI336
ag1
(g5
S'P\x01\x00\x00'
p29
tp30
Rp31
aI275
aI273
ag1
(g5
S'P\x01\x00\x00'
p32
tp33
Rp34
aI334
aI273
aI277
aI273
aI275
ag1
(g5
S'N\x01\x00\x00'
p35
tp36
Rp37
aI336
aI275
aI336
aI273
ag1
(g5
S'\x11\x01\x00\x00'
p38
tp39
Rp40
aI337
aI273
aI275
ag1
(g5
S'O\x01\x00\x00'
p41
tp42
Rp43
aI334
aI275
ag1
(g5
S'R\x01\x00\x00'
p44
tp45
Rp46
aI157
aI275
ag1
(g5
S'\x11\x01\x00\x00'
p47
tp48
Rp49
aI335
ag1
(g5
S'O\x01\x00\x00'
p50
tp51
Rp52
aI336
aI274
aI273
ag1
(g5
S'O\x01\x00\x00'
p53
tp54
Rp55
aI275
aI275
aI275
aI273
ag1
(g5
S'P\x01\x00\x00'
p56
tp57
Rp58
ag1
(g5
S'P\x01\x00\x00'
p59
tp60
Rp61
aI334
aI277
aI275
aI275
aI274
aI275
aI275
aI337
aI273
aI273
aI273
aI274
aI273
ag1
(g5
S'\x13\x01\x00\x00'
p62
tp63
Rp64
aI334
ag1
(g5
S'P\x01\x00\x00'
p65
tp66
Rp67
ag1
(g5
S'P\x01\x00\x00'
p68
tp69
Rp70
aI337
ag1
(g5
S'P\x01\x00\x00'
p71
tp72
Rp73
aI334
aI273
aI274
ag1
(g5
S'P\x01\x00\x00'
p74
tp75
Rp76
aI273
aI334
aI336
ag1
(g5
S'\x11\x01\x00\x00'
p77
tp78
Rp79
ag1
(g5
S'\x12\x01\x00\x00'
p80
tp81
Rp82
ag1
(g5
S'O\x01\x00\x00'
p83
tp84
Rp85
ag1
(g5
S'P\x01\x00\x00'
p86
tp87
Rp88
ag1
(g5
S'O\x01\x00\x00'
p89
tp90
Rp91
ag1
(g5
S'\x12\x01\x00\x00'
p92
tp93
Rp94
ag1
(g5
S'Q\x01\x00\x00'
p95
tp96
Rp97
aI275
a.