(lp0
I106
aI235
aI214
aI235
acnumpy.core.multiarray
scalar
p1
(cnumpy
dtype
p2
(S'i4'
p3
I0
I1
tp4
Rp5
(I3
S'<'
p6
NNNI-1
I-1
I0
tp7
bS'\x00\x01\x00\x00'
p8
tp9
Rp10
ag1
(g5
S'D\x01\x00\x00'
p11
tp12
Rp13
aI172
aI235
aI235
ag1
(g5
S']\x00\x00\x00'
p14
tp15
Rp16
aI93
aI323
ag1
(g5
S'D\x01\x00\x00'
p17
tp18
Rp19
aI235
aI193
aI235
aI93
aI324
aI193
aI193
ag1
(g5
S'D\x01\x00\x00'
p20
tp21
Rp22
aI193
aI235
ag1
(g5
S'D\x01\x00\x00'
p23
tp24
Rp25
ag1
(g5
S'E\x01\x00\x00'
p26
tp27
Rp28
ag1
(g5
S'D\x01\x00\x00'
p29
tp30
Rp31
aI214
aI93
aI214
aI256
ag1
(g5
S'D\x01\x00\x00'
p32
tp33
Rp34
ag1
(g5
S'3\x01\x00\x00'
p35
tp36
Rp37
ag1
(g5
S'\xc3\x00\x00\x00'
p38
tp39
Rp40
ag1
(g5
S'-\x01\x00\x00'
p41
tp42
Rp43
aI91
aI193
ag1
(g5
S']\x00\x00\x00'
p44
tp45
Rp46
ag1
(g5
S'\x16\x01\x00\x00'
p47
tp48
Rp49
aI235
aI324
aI93
aI214
aI214
aI92
aI235
ag1
(g5
S'D\x01\x00\x00'
p50
tp51
Rp52
ag1
(g5
S'D\x01\x00\x00'
p53
tp54
Rp55
aI214
aI235
ag1
(g5
S']\x00\x00\x00'
p56
tp57
Rp58
aI235
aI214
aI193
ag1
(g5
S'D\x01\x00\x00'
p59
tp60
Rp61
ag1
(g5
S'\xc1\x00\x00\x00'
p62
tp63
Rp64
aI236
ag1
(g5
S'[\x00\x00\x00'
p65
tp66
Rp67
aI214
aI193
ag1
(g5
S'D\x01\x00\x00'
p68
tp69
Rp70
ag1
(g5
S'E\x01\x00\x00'
p71
tp72
Rp73
ag1
(g5
S'\xae\x00\x00\x00'
p74
tp75
Rp76
aI93
aI193
aI214
aI193
aI256
aI172
aI214
ag1
(g5
S'D\x01\x00\x00'
p77
tp78
Rp79
aI214
ag1
(g5
S'p\x00\x00\x00'
p80
tp81
Rp82
ag1
(g5
S'\xd6\x00\x00\x00'
p83
tp84
Rp85
aI93
aI235
ag1
(g5
S'D\x01\x00\x00'
p86
tp87
Rp88
ag1
(g5
S'\\\x00\x00\x00'
p89
tp90
Rp91
aI193
aI193
aI193
aI193
aI193
aI193
ag1
(g5
S'E\x01\x00\x00'
p92
tp93
Rp94
aI193
aI214
ag1
(g5
S'F\x01\x00\x00'
p95
tp96
Rp97
aI193
ag1
(g5
S'D\x01\x00\x00'
p98
tp99
Rp100
aI172
ag1
(g5
S'\xec\x00\x00\x00'
p101
tp102
Rp103
ag1
(g5
S'E\x00\x00\x00'
p104
tp105
Rp106
aI235
ag1
(g5
S'X\x01\x00\x00'
p107
tp108
Rp109
ag1
(g5
S'\xeb\x00\x00\x00'
p110
tp111
Rp112
aI235
aI214
ag1
(g5
S'\\\x00\x00\x00'
p113
tp114
Rp115
ag1
(g5
S'\xd6\x00\x00\x00'
p116
tp117
Rp118
ag1
(g5
S'\n\x01\x00\x00'
p119
tp120
Rp121
a.