(lp0
I66
aI214
aI214
aI235
aI235
aI235
aI214
aI214
aI193
aI363
aI90
aI235
aI258
aI214
aI45
aI214
aI257
aI214
aI214
aI112
aI289
aI300
aI235
aI281
aI256
aI193
aI114
aI2
aI153
aI244
aI234
aI71
aI130
aI301
aI236
aI193
aI235
aI301
aI214
aI323
aI321
aI235
aI4
aI214
aI235
aI70
aI214
aI290
aI235
aI92
aI235
aI214
aI127
aI300
aI214
aI214
aI173
aI214
aI193
aI279
aI279
aI282
aI30
aI129
aI65
aI214
aI233
aI5
aI214
aI259
aI152
aI50
aI235
aI93
aI243
aI324
aI214
aI64
aI235
aI193
aI324
aI27
aI214
aI232
aI214
aI277
aI298
aI214
aI1
aI231
aI236
aI3
aI235
aI65
aI232
aI214
aI90
aI193
aI193
aI172
a.