(lp0
I106
aI193
acnumpy.core.multiarray
scalar
p1
(cnumpy
dtype
p2
(S'i4'
p3
I0
I1
tp4
Rp5
(I3
S'<'
p6
NNNI-1
I-1
I0
tp7
bS'\xc1\x00\x00\x00'
p8
tp9
Rp10
ag1
(g5
S'\x00\x01\x00\x00'
p11
tp12
Rp13
aI256
aI299
aI193
ag1
(g5
S'\x00\x01\x00\x00'
p14
tp15
Rp16
aI235
aI93
ag1
(g5
S'Z\x00\x00\x00'
p17
tp18
Rp19
aI343
ag1
(g5
S'\xd6\x00\x00\x00'
p20
tp21
Rp22
aI214
aI151
aI256
ag1
(g5
S'D\x01\x00\x00'
p23
tp24
Rp25
aI256
ag1
(g5
S'\xd6\x00\x00\x00'
p26
tp27
Rp28
aI193
ag1
(g5
S'D\x01\x00\x00'
p29
tp30
Rp31
aI172
aI214
ag1
(g5
S'D\x01\x00\x00'
p32
tp33
Rp34
aI193
aI214
aI193
aI235
aI173
aI235
aI322
aI214
aI214
aI318
aI235
aI193
aI172
ag1
(g5
S'.\x01\x00\x00'
p35
tp36
Rp37
aI235
aI322
ag1
(g5
S']\x00\x00\x00'
p38
tp39
Rp40
aI277
aI193
aI193
aI193
ag1
(g5
S'o\x00\x00\x00'
p41
tp42
Rp43
ag1
(g5
S'D\x01\x00\x00'
p44
tp45
Rp46
aI193
ag1
(g5
S'U\x01\x00\x00'
p47
tp48
Rp49
aI173
aI172
aI235
aI194
aI256
aI193
aI235
aI110
ag1
(g5
S'\xd6\x00\x00\x00'
p50
tp51
Rp52
aI193
aI323
ag1
(g5
S'E\x01\x00\x00'
p53
tp54
Rp55
ag1
(g5
S'\x94\x01\x00\x00'
p56
tp57
Rp58
ag1
(g5
S']\x00\x00\x00'
p59
tp60
Rp61
aI214
aI113
aI193
ag1
(g5
S'D\x01\x00\x00'
p62
tp63
Rp64
aI172
aI193
aI193
aI193
aI72
aI235
ag1
(g5
S']\x00\x00\x00'
p65
tp66
Rp67
aI236
aI193
ag1
(g5
S'G\x00\x00\x00'
p68
tp69
Rp70
ag1
(g5
S'\xac\x00\x00\x00'
p71
tp72
Rp73
aI172
aI193
aI302
aI161
aI193
ag1
(g5
S'E\x01\x00\x00'
p74
tp75
Rp76
aI235
ag1
(g5
S'/\x00\x00\x00'
p77
tp78
Rp79
ag1
(g5
S'F\x01\x00\x00'
p80
tp81
Rp82
aI194
ag1
(g5
S'D\x01\x00\x00'
p83
tp84
Rp85
aI214
aI235
aI301
aI256
aI193
ag1
(g5
S'}\x01\x00\x00'
p86
tp87
Rp88
aI235
aI235
aI91
ag1
(g5
S'\xd6\x00\x00\x00'
p89
tp90
Rp91
aI214
a.