(lp0
I193
acnumpy.core.multiarray
scalar
p1
(cnumpy
dtype
p2
(S'i4'
p3
I0
I1
tp4
Rp5
(I3
S'<'
p6
NNNI-1
I-1
I0
tp7
bS'\xeb\x00\x00\x00'
p8
tp9
Rp10
aI195
aI237
ag1
(g5
S'\xec\x00\x00\x00'
p11
tp12
Rp13
ag1
(g5
S'\xea\x00\x00\x00'
p14
tp15
Rp16
aI234
aI194
ag1
(g5
S'\xeb\x00\x00\x00'
p17
tp18
Rp19
ag1
(g5
S'\xec\x00\x00\x00'
p20
tp21
Rp22
ag1
(g5
S'\xc3\x00\x00\x00'
p23
tp24
Rp25
aI192
aI195
aI236
ag1
(g5
S'\xea\x00\x00\x00'
p26
tp27
Rp28
aI193
aI193
aI237
aI191
aI234
ag1
(g5
S'\xc2\x00\x00\x00'
p29
tp30
Rp31
aI236
aI236
ag1
(g5
S'\xeb\x00\x00\x00'
p32
tp33
Rp34
aI195
aI195
aI233
ag1
(g5
S'\xc3\x00\x00\x00'
p35
tp36
Rp37
aI195
aI234
a.