(lp0
I66
aI235
aI235
aI214
aI193
acnumpy.core.multiarray
scalar
p1
(cnumpy
dtype
p2
(S'i4'
p3
I0
I1
tp4
Rp5
(I3
S'<'
p6
NNNI-1
I-1
I0
tp7
bS'\x00\x01\x00\x00'
p8
tp9
Rp10
aI214
aI235
aI172
aI363
aI114
aI326
aI303
ag1
(g5
S'\x02\x01\x00\x00'
p11
tp12
Rp13
aI152
ag1
(g5
S'\xd6\x00\x00\x00'
p14
tp15
Rp16
aI258
ag1
(g5
S'\xd6\x00\x00\x00'
p17
tp18
Rp19
aI214
aI114
aI345
aI300
aI235
aI324
aI256
aI193
aI114
ag1
(g5
S'\x19\x00\x00\x00'
p20
tp21
Rp22
aI152
ag1
(g5
S'\t\x01\x00\x00'
p23
tp24
Rp25
aI234
aI138
aI174
ag1
(g5
S'.\x01\x00\x00'
p26
tp27
Rp28
ag1
(g5
S'\xee\x00\x00\x00'
p29
tp30
Rp31
aI172
ag1
(g5
S'\x82\x01\x00\x00'
p32
tp33
Rp34
aI324
aI214
aI321
ag1
(g5
S'C\x01\x00\x00'
p35
tp36
Rp37
aI338
ag1
(g5
S'\xa2\x00\x00\x00'
p38
tp39
Rp40
aI214
aI214
ag1
(g5
S'F\x00\x00\x00'
p41
tp42
Rp43
ag1
(g5
S'\xd6\x00\x00\x00'
p44
tp45
Rp46
ag1
(g5
S'$\x01\x00\x00'
p47
tp48
Rp49
aI235
aI92
aI235
aI235
aI127
ag1
(g5
S'\x80\x01\x00\x00'
p50
tp51
Rp52
ag1
(g5
S'\xd6\x00\x00\x00'
p53
tp54
Rp55
aI235
aI151
aI214
ag1
(g5
S'\x97\x00\x00\x00'
p56
tp57
Rp58
aI289
ag1
(g5
S'\x81\x01\x00\x00'
p59
tp60
Rp61
aI324
aI93
aI193
ag1
(g5
S'k\x00\x00\x00'
p62
tp63
Rp64
aI235
ag1
(g5
S'.\x01\x00\x00'
p65
tp66
Rp67
aI131
aI214
aI325
aI192
ag1
(g5
S'2\x00\x00\x00'
p68
tp69
Rp70
aI256
ag1
(g5
S']\x00\x00\x00'
p71
tp72
Rp73
aI264
ag1
(g5
S'\x83\x01\x00\x00'
p74
tp75
Rp76
aI193
aI151
aI193
aI111
aI363
ag1
(g5
S'?\x00\x00\x00'
p77
tp78
Rp79
aI193
ag1
(g5
S'\x14\x01\x00\x00'
p80
tp81
Rp82
aI193
aI324
aI319
aI235
aI151
aI235
ag1
(g5
S'\x03\x01\x00\x00'
p83
tp84
Rp85
ag1
(g5
S'\x19\x01\x00\x00'
p86
tp87
Rp88
aI324
aI65
ag1
(g5
S'A\x01\x00\x00'
p89
tp90
Rp91
ag1
(g5
S'\xd6\x00\x00\x00'
p92
tp93
Rp94
aI92
aI235
aI172
aI172
a.