(lp0
cnumpy.core.multiarray
scalar
p1
(cnumpy
dtype
p2
(S'i4'
p3
I0
I1
tp4
Rp5
(I3
S'<'
p6
NNNI-1
I-1
I0
tp7
bS'\xd7\x00\x00\x00'
p8
tp9
Rp10
aI254
ag1
(g5
S'\xac\x00\x00\x00'
p11
tp12
Rp13
aI176
ag1
(g5
S'\xad\x00\x00\x00'
p14
tp15
Rp16
aI174
aI171
aI175
aI131
ag1
(g5
S'\xac\x00\x00\x00'
p17
tp18
Rp19
aI177
aI214
ag1
(g5
S'\xad\x00\x00\x00'
p20
tp21
Rp22
aI171
aI209
aI172
aI172
aI172
aI173
aI213
aI176
ag1
(g5
S'\xaf\x00\x00\x00'
p23
tp24
Rp25
ag1
(g5
S'\xd7\x00\x00\x00'
p26
tp27
Rp28
aI214
aI173
aI175
ag1
(g5
S'\xda\x00\x00\x00'
p29
tp30
Rp31
aI294
aI170
a.