(lp0
cnumpy.core.multiarray
scalar
p1
(cnumpy
dtype
p2
(S'i4'
p3
I0
I1
tp4
Rp5
(I3
S'<'
p6
NNNI-1
I-1
I0
tp7
bS'\x87\x01\x00\x00'
p8
tp9
Rp10
aI391
ag1
(g5
S'\x87\x01\x00\x00'
p11
tp12
Rp13
aI318
aI320
aI319
aI319
aI391
aI319
ag1
(g5
S'@\x01\x00\x00'
p14
tp15
Rp16
aI319
aI318
aI390
aI392
aI319
aI320
ag1
(g5
S'@\x01\x00\x00'
p17
tp18
Rp19
aI390
aI318
aI391
aI318
aI320
aI322
ag1
(g5
S'@\x01\x00\x00'
p20
tp21
Rp22
aI320
aI390
aI320
aI320
aI321
aI320
ag1
(g5
S'@\x01\x00\x00'
p23
tp24
Rp25
aI391
ag1
(g5
S'\x88\x01\x00\x00'
p26
tp27
Rp28
ag1
(g5
S'\x86\x01\x00\x00'
p29
tp30
Rp31
aI318
ag1
(g5
S'>\x01\x00\x00'
p32
tp33
Rp34
ag1
(g5
S'\x85\x01\x00\x00'
p35
tp36
Rp37
aI320
aI320
ag1
(g5
S'\x87\x01\x00\x00'
p38
tp39
Rp40
ag1
(g5
S'>\x01\x00\x00'
p41
tp42
Rp43
aI390
aI390
aI321
aI389
aI320
aI391
aI318
ag1
(g5
S'\x87\x01\x00\x00'
p44
tp45
Rp46
ag1
(g5
S'?\x01\x00\x00'
p47
tp48
Rp49
aI318
ag1
(g5
S'\x86\x01\x00\x00'
p50
tp51
Rp52
aI391
aI318
aI389
aI318
aI391
aI319
ag1
(g5
S'?\x01\x00\x00'
p53
tp54
Rp55
aI318
aI318
aI391
aI318
aI320
ag1
(g5
S'>\x01\x00\x00'
p56
tp57
Rp58
aI390
aI390
ag1
(g5
S'?\x01\x00\x00'
p59
tp60
Rp61
ag1
(g5
S'A\x01\x00\x00'
p62
tp63
Rp64
aI319
ag1
(g5
S'?\x01\x00\x00'
p65
tp66
Rp67
aI320
ag1
(g5
S'?\x01\x00\x00'
p68
tp69
Rp70
aI392
ag1
(g5
S'>\x01\x00\x00'
p71
tp72
Rp73
aI319
aI321
aI319
aI319
ag1
(g5
S'\x87\x01\x00\x00'
p74
tp75
Rp76
aI389
aI318
aI391
aI394
aI389
aI320
aI321
aI318
ag1
(g5
S'\x86\x01\x00\x00'
p77
tp78
Rp79
ag1
(g5
S'\x86\x01\x00\x00'
p80
tp81
Rp82
aI390
ag1
(g5
S'\x85\x01\x00\x00'
p83
tp84
Rp85
aI319
aI390
aI391
ag1
(g5
S'?\x01\x00\x00'
p86
tp87
Rp88
aI321
aI389
ag1
(g5
S'\x86\x01\x00\x00'
p89
tp90
Rp91
aI389
a.