(lp0
I66
aI214
aI235
aI235
aI235
acnumpy.core.multiarray
scalar
p1
(cnumpy
dtype
p2
(S'i4'
p3
I0
I1
tp4
Rp5
(I3
S'<'
p6
NNNI-1
I-1
I0
tp7
bS'\x00\x01\x00\x00'
p8
tp9
Rp10
aI214
aI214
aI193
aI363
aI114
aI235
aI288
aI214
aI152
ag1
(g5
S'\xd6\x00\x00\x00'
p11
tp12
Rp13
aI257
ag1
(g5
S'\xd6\x00\x00\x00'
p14
tp15
Rp16
aI214
aI114
aI345
ag1
(g5
S',\x01\x00\x00'
p17
tp18
Rp19
aI235
aI324
aI256
aI193
aI114
ag1
(g5
S'\x19\x00\x00\x00'
p20
tp21
Rp22
aI153
ag1
(g5
S'\t\x01\x00\x00'
p23
tp24
Rp25
aI234
aI138
aI174
ag1
(g5
S'.\x01\x00\x00'
p26
tp27
Rp28
aI238
aI172
ag1
(g5
S'\x82\x01\x00\x00'
p29
tp30
Rp31
aI324
aI235
aI323
ag1
(g5
S'C\x01\x00\x00'
p32
tp33
Rp34
aI338
ag1
(g5
S'\xa2\x00\x00\x00'
p35
tp36
Rp37
aI214
aI235
aI92
ag1
(g5
S'\xd6\x00\x00\x00'
p38
tp39
Rp40
ag1
(g5
S'$\x01\x00\x00'
p41
tp42
Rp43
aI235
aI93
aI235
aI235
aI128
ag1
(g5
S'\x80\x01\x00\x00'
p44
tp45
Rp46
ag1
(g5
S'\xd6\x00\x00\x00'
p47
tp48
Rp49
aI214
aI151
aI214
aI193
aI289
ag1
(g5
S'\x81\x01\x00\x00'
p50
tp51
Rp52
aI382
aI93
aI193
ag1
(g5
S'k\x00\x00\x00'
p53
tp54
Rp55
aI235
aI302
aI131
aI214
aI325
aI192
ag1
(g5
S'2\x00\x00\x00'
p56
tp57
Rp58
aI235
ag1
(g5
S']\x00\x00\x00'
p59
tp60
Rp61
aI264
ag1
(g5
S'\x83\x01\x00\x00'
p62
tp63
Rp64
aI214
aI151
aI235
aI193
aI363
aI106
aI214
ag1
(g5
S'\x14\x01\x00\x00'
p65
tp66
Rp67
aI193
aI277
aI298
aI214
aI151
aI235
ag1
(g5
S'\x03\x01\x00\x00'
p68
tp69
Rp70
aI281
aI324
aI65
aI295
ag1
(g5
S'\xd6\x00\x00\x00'
p71
tp72
Rp73
aI92
aI193
aI193
aI172
a.