(lp0
cnumpy.core.multiarray
scalar
p1
(cnumpy
dtype
p2
(S'i4'
p3
I0
I1
tp4
Rp5
(I3
S'<'
p6
NNNI-1
I-1
I0
tp7
bS'i\x00\x00\x00'
p8
tp9
Rp10
ag1
(g5
S'\x00\x01\x00\x00'
p11
tp12
Rp13
aI214
aI214
ag1
(g5
S'\x00\x01\x00\x00'
p14
tp15
Rp16
aI277
aI172
aI235
aI235
aI93
aI93
aI323
ag1
(g5
S'F\x01\x00\x00'
p17
tp18
Rp19
aI214
aI214
aI235
aI235
aI235
aI193
aI193
ag1
(g5
S'E\x01\x00\x00'
p20
tp21
Rp22
aI193
aI235
ag1
(g5
S'D\x01\x00\x00'
p23
tp24
Rp25
aI235
aI256
aI193
ag1
(g5
S']\x00\x00\x00'
p26
tp27
Rp28
aI173
aI235
ag1
(g5
S'D\x01\x00\x00'
p29
tp30
Rp31
ag1
(g5
S'D\x01\x00\x00'
p32
tp33
Rp34
aI174
ag1
(g5
S'.\x01\x00\x00'
p35
tp36
Rp37
aI235
aI193
ag1
(g5
S']\x00\x00\x00'
p38
tp39
Rp40
ag1
(g5
S'\x16\x01\x00\x00'
p41
tp42
Rp43
aI235
aI172
ag1
(g5
S'_\x00\x00\x00'
p44
tp45
Rp46
aI235
aI214
aI93
aI214
aI323
aI324
aI214
aI235
aI93
aI235
aI235
aI172
aI235
aI214
aI193
ag1
(g5
S'[\x00\x00\x00'
p47
tp48
Rp49
aI235
aI172
aI323
aI324
aI235
aI193
aI193
aI214
aI214
aI325
aI172
aI214
ag1
(g5
S'C\x01\x00\x00'
p50
tp51
Rp52
aI214
ag1
(g5
S'\x84\x00\x00\x00'
p53
tp54
Rp55
aI214
ag1
(g5
S']\x00\x00\x00'
p56
tp57
Rp58
aI214
ag1
(g5
S'D\x01\x00\x00'
p59
tp60
Rp61
aI93
aI194
aI214
aI172
aI324
aI193
aI193
ag1
(g5
S'F\x01\x00\x00'
p62
tp63
Rp64
aI193
ag1
(g5
S'\xac\x00\x00\x00'
p65
tp66
Rp67
ag1
(g5
S'C\x01\x00\x00'
p68
tp69
Rp70
aI151
ag1
(g5
S'E\x01\x00\x00'
p71
tp72
Rp73
aI235
ag1
(g5
S'\xec\x00\x00\x00'
p74
tp75
Rp76
aI280
aI235
aI344
ag1
(g5
S'\xd6\x00\x00\x00'
p77
tp78
Rp79
aI256
aI214
aI194
aI235
aI193
a.