(lp0
I235
aI235
aI193
aI48
aI235
aI193
aI214
aI214
aI235
aI151
aI214
aI193
aI235
aI214
aI193
aI235
aI323
aI214
aI214
aI235
aI214
aI193
acnumpy.core.multiarray
scalar
p1
(cnumpy
dtype
p2
(S'i4'
p3
I0
I1
tp4
Rp5
(I3
S'<'
p6
NNNI-1
I-1
I0
tp7
bS'n\x00\x00\x00'
p8
tp9
Rp10
aI235
aI323
aI235
aI194
aI214
aI214
aI235
aI214
ag1
(g5
S'\x00\x01\x00\x00'
p11
tp12
Rp13
aI235
aI235
aI193
ag1
(g5
S'W\x01\x00\x00'
p14
tp15
Rp16
aI193
aI152
aI214
aI193
aI154
aI193
aI151
aI214
aI235
aI193
aI321
ag1
(g5
S'\xc1\x00\x00\x00'
p17
tp18
Rp19
aI214
aI193
aI235
aI257
aI193
aI214
ag1
(g5
S'\x85\x00\x00\x00'
p20
tp21
Rp22
aI193
aI235
aI193
aI214
aI193
aI214
aI235
aI172
aI93
aI193
aI193
aI193
aI235
aI214
aI235
aI193
aI214
aI299
aI193
aI214
aI193
aI193
aI193
aI235
aI93
aI193
ag1
(g5
S'\\\x00\x00\x00'
p23
tp24
Rp25
aI235
aI257
aI214
aI235
aI302
aI152
aI214
aI193
ag1
(g5
S'B\x01\x00\x00'
p26
tp27
Rp28
ag1
(g5
S'F\x00\x00\x00'
p29
tp30
Rp31
aI214
aI235
aI194
aI235
aI93
ag1
(g5
S'\xac\x00\x00\x00'
p32
tp33
Rp34
aI214
aI193
a.