(lp0
I296
acnumpy.core.multiarray
scalar
p1
(cnumpy
dtype
p2
(S'i4'
p3
I0
I1
tp4
Rp5
(I3
S'<'
p6
NNNI-1
I-1
I0
tp7
bS']\x00\x00\x00'
p8
tp9
Rp10
aI92
aI113
ag1
(g5
S'^\x00\x00\x00'
p11
tp12
Rp13
aI95
ag1
(g5
S'G\x01\x00\x00'
p14
tp15
Rp16
aI193
aI214
ag1
(g5
S'F\x01\x00\x00'
p17
tp18
Rp19
ag1
(g5
S'F\x01\x00\x00'
p20
tp21
Rp22
ag1
(g5
S']\x00\x00\x00'
p23
tp24
Rp25
ag1
(g5
S'E\x01\x00\x00'
p26
tp27
Rp28
ag1
(g5
S'D\x01\x00\x00'
p29
tp30
Rp31
aI324
ag1
(g5
S'`\x00\x00\x00'
p32
tp33
Rp34
aI298
aI91
ag1
(g5
S'!\x01\x00\x00'
p35
tp36
Rp37
aI95
aI286
aI235
aI256
aI322
aI277
ag1
(g5
S'F\x01\x00\x00'
p38
tp39
Rp40
ag1
(g5
S'F\x01\x00\x00'
p41
tp42
Rp43
aI96
aI256
aI281
ag1
(g5
S'F\x01\x00\x00'
p44
tp45
Rp46
ag1
(g5
S'X\x01\x00\x00'
p47
tp48
Rp49
ag1
(g5
S'/\x01\x00\x00'
p50
tp51
Rp52
ag1
(g5
S'F\x01\x00\x00'
p53
tp54
Rp55
ag1
(g5
S'F\x01\x00\x00'
p56
tp57
Rp58
ag1
(g5
S'D\x01\x00\x00'
p59
tp60
Rp61
aI154
aI289
aI111
aI161
aI235
aI161
aI235
ag1
(g5
S'`\x00\x00\x00'
p62
tp63
Rp64
ag1
(g5
S'_\x00\x00\x00'
p65
tp66
Rp67
aI235
aI256
aI193
aI324
aI160
aI235
aI93
ag1
(g5
S'\x18\x01\x00\x00'
p68
tp69
Rp70
aI132
aI112
ag1
(g5
S'_\x00\x00\x00'
p71
tp72
Rp73
ag1
(g5
S'E\x01\x00\x00'
p74
tp75
Rp76
ag1
(g5
S'X\x01\x00\x00'
p77
tp78
Rp79
ag1
(g5
S']\x00\x00\x00'
p80
tp81
Rp82
aI172
ag1
(g5
S'\x86\x00\x00\x00'
p83
tp84
Rp85
ag1
(g5
S'E\x01\x00\x00'
p86
tp87
Rp88
aI257
aI173
aI119
ag1
(g5
S'_\x00\x00\x00'
p89
tp90
Rp91
aI214
aI323
aI95
aI90
ag1
(g5
S'`\x00\x00\x00'
p92
tp93
Rp94
ag1
(g5
S'K\x00\x00\x00'
p95
tp96
Rp97
aI322
aI256
aI112
aI288
aI214
ag1
(g5
S'D\x01\x00\x00'
p98
tp99
Rp100
ag1
(g5
S'\x8a\x00\x00\x00'
p101
tp102
Rp103
ag1
(g5
S'E\x01\x00\x00'
p104
tp105
Rp106
aI301
ag1
(g5
S'^\x00\x00\x00'
p107
tp108
Rp109
aI323
aI323
aI302
ag1
(g5
S'E\x01\x00\x00'
p110
tp111
Rp112
aI344
aI300
aI235
ag1
(g5
S'E\x01\x00\x00'
p113
tp114
Rp115
ag1
(g5
S'D\x01\x00\x00'
p116
tp117
Rp118
aI96
aI307
aI193
aI288
ag1
(g5
S'F\x01\x00\x00'
p119
tp120
Rp121
aI322
aI162
aI118
ag1
(g5
S'_\x00\x00\x00'
p122
tp123
Rp124
a.