(lp0
cnumpy.core.multiarray
scalar
p1
(cnumpy
dtype
p2
(S'i4'
p3
I0
I1
tp4
Rp5
(I3
S'<'
p6
NNNI-1
I-1
I0
tp7
bS'F\x01\x00\x00'
p8
tp9
Rp10
ag1
(g5
S'`\x00\x00\x00'
p11
tp12
Rp13
aI92
aI113
ag1
(g5
S'_\x00\x00\x00'
p14
tp15
Rp16
aI92
aI324
aI193
aI214
ag1
(g5
S'G\x01\x00\x00'
p17
tp18
Rp19
aI324
ag1
(g5
S'^\x00\x00\x00'
p20
tp21
Rp22
ag1
(g5
S'F\x01\x00\x00'
p23
tp24
Rp25
ag1
(g5
S'F\x01\x00\x00'
p26
tp27
Rp28
aI324
ag1
(g5
S'_\x00\x00\x00'
p29
tp30
Rp31
aI277
aI91
ag1
(g5
S'E\x01\x00\x00'
p32
tp33
Rp34
ag1
(g5
S'`\x00\x00\x00'
p35
tp36
Rp37
ag1
(g5
S'E\x01\x00\x00'
p38
tp39
Rp40
aI235
ag1
(g5
S'E\x01\x00\x00'
p41
tp42
Rp43
aI322
aI277
aI306
ag1
(g5
S'E\x01\x00\x00'
p44
tp45
Rp46
ag1
(g5
S'_\x00\x00\x00'
p47
tp48
Rp49
aI214
aI281
ag1
(g5
S'X\x01\x00\x00'
p50
tp51
Rp52
ag1
(g5
S'Y\x01\x00\x00'
p53
tp54
Rp55
ag1
(g5
S'-\x01\x00\x00'
p56
tp57
Rp58
ag1
(g5
S'F\x01\x00\x00'
p59
tp60
Rp61
aI327
ag1
(g5
S'F\x01\x00\x00'
p62
tp63
Rp64
aI172
aI289
aI111
aI161
aI235
aI161
aI235
aI93
ag1
(g5
S']\x00\x00\x00'
p65
tp66
Rp67
aI235
aI256
aI193
aI324
aI161
ag1
(g5
S'\x00\x01\x00\x00'
p68
tp69
Rp70
aI93
aI281
aI132
aI133
aI93
ag1
(g5
S'F\x01\x00\x00'
p71
tp72
Rp73
ag1
(g5
S'W\x01\x00\x00'
p74
tp75
Rp76
aI94
aI172
ag1
(g5
S'\x86\x00\x00\x00'
p77
tp78
Rp79
aI324
aI256
aI173
aI96
ag1
(g5
S'a\x00\x00\x00'
p80
tp81
Rp82
ag1
(g5
S'D\x01\x00\x00'
p83
tp84
Rp85
ag1
(g5
S'E\x01\x00\x00'
p86
tp87
Rp88
aI93
aI90
ag1
(g5
S'^\x00\x00\x00'
p89
tp90
Rp91
ag1
(g5
S']\x00\x00\x00'
p92
tp93
Rp94
aI301
aI277
aI112
aI112
aI214
aI287
ag1
(g5
S'^\x00\x00\x00'
p95
tp96
Rp97
ag1
(g5
S'C\x01\x00\x00'
p98
tp99
Rp100
aI300
aI214
aI326
aI323
ag1
(g5
S'.\x01\x00\x00'
p101
tp102
Rp103
ag1
(g5
S'F\x01\x00\x00'
p104
tp105
Rp106
aI288
aI300
aI235
ag1
(g5
S'E\x01\x00\x00'
p107
tp108
Rp109
ag1
(g5
S'E\x01\x00\x00'
p110
tp111
Rp112
aI70
aI324
ag1
(g5
S']\x00\x00\x00'
p113
tp114
Rp115
aI214
aI322
aI321
aI162
aI95
ag1
(g5
S']\x00\x00\x00'
p116
tp117
Rp118
a.