(lp0
cnumpy.core.multiarray
scalar
p1
(cnumpy
dtype
p2
(S'i4'
p3
I0
I1
tp4
Rp5
(I3
S'<'
p6
NNNI-1
I-1
I0
tp7
bS'F\x01\x00\x00'
p8
tp9
Rp10
aI94
aI92
aI93
aI95
ag1
(g5
S'_\x00\x00\x00'
p11
tp12
Rp13
ag1
(g5
S'2\x01\x00\x00'
p14
tp15
Rp16
aI193
aI235
aI326
ag1
(g5
S'D\x01\x00\x00'
p17
tp18
Rp19
ag1
(g5
S'^\x00\x00\x00'
p20
tp21
Rp22
ag1
(g5
S'F\x01\x00\x00'
p23
tp24
Rp25
aI287
aI345
aI92
ag1
(g5
S'[\x01\x00\x00'
p26
tp27
Rp28
ag1
(g5
S']\x00\x00\x00'
p29
tp30
Rp31
aI287
aI95
ag1
(g5
S'[\x01\x00\x00'
p32
tp33
Rp34
aI172
aI235
aI287
aI256
ag1
(g5
S'2\x01\x00\x00'
p35
tp36
Rp37
aI288
aI214
aI326
aI301
ag1
(g5
S'G\x01\x00\x00'
p38
tp39
Rp40
aI344
aI172
ag1
(g5
S'D\x01\x00\x00'
p41
tp42
Rp43
ag1
(g5
S'G\x01\x00\x00'
p44
tp45
Rp46
ag1
(g5
S'F\x01\x00\x00'
p47
tp48
Rp49
ag1
(g5
S'2\x01\x00\x00'
p50
tp51
Rp52
aI308
aI111
ag1
(g5
S'j\x01\x00\x00'
p53
tp54
Rp55
aI235
aI194
aI214
aI96
ag1
(g5
S'v\x00\x00\x00'
p56
tp57
Rp58
ag1
(g5
S'G\x01\x00\x00'
p59
tp60
Rp61
aI235
ag1
(g5
S'\xa2\x00\x00\x00'
p62
tp63
Rp64
aI255
aI161
aI193
aI181
aI238
aI192
aI133
ag1
(g5
S'_\x00\x00\x00'
p65
tp66
Rp67
ag1
(g5
S'D\x01\x00\x00'
p68
tp69
Rp70
ag1
(g5
S'F\x01\x00\x00'
p71
tp72
Rp73
ag1
(g5
S'\xa4\x00\x00\x00'
p74
tp75
Rp76
aI119
ag1
(g5
S'\x86\x00\x00\x00'
p77
tp78
Rp79
aI325
aI236
aI328
aI97
ag1
(g5
S'_\x00\x00\x00'
p80
tp81
Rp82
ag1
(g5
S'F\x01\x00\x00'
p83
tp84
Rp85
ag1
(g5
S'G\x01\x00\x00'
p86
tp87
Rp88
aI95
aI90
aI95
ag1
(g5
S'K\x00\x00\x00'
p89
tp90
Rp91
aI236
aI256
ag1
(g5
S'_\x00\x00\x00'
p92
tp93
Rp94
aI324
aI214
ag1
(g5
S'D\x01\x00\x00'
p95
tp96
Rp97
aI343
aI287
aI322
ag1
(g5
S'_\x00\x00\x00'
p98
tp99
Rp100
aI326
aI325
aI302
ag1
(g5
S'F\x01\x00\x00'
p101
tp102
Rp103
aI341
aI324
ag1
(g5
S'G\x00\x00\x00'
p104
tp105
Rp106
ag1
(g5
S'D\x01\x00\x00'
p107
tp108
Rp109
ag1
(g5
S'D\x01\x00\x00'
p110
tp111
Rp112
ag1
(g5
S'_\x00\x00\x00'
p113
tp114
Rp115
aI287
aI214
aI236
ag1
(g5
S'3\x01\x00\x00'
p116
tp117
Rp118
ag1
(g5
S']\x00\x00\x00'
p119
tp120
Rp121
ag1
(g5
S'-\x01\x00\x00'
p122
tp123
Rp124
aI95
ag1
(g5
S']\x00\x00\x00'
p125
tp126
Rp127
a.