(lp0
cnumpy.core.multiarray
scalar
p1
(cnumpy
dtype
p2
(S'i4'
p3
I0
I1
tp4
Rp5
(I3
S'<'
p6
NNNI-1
I-1
I0
tp7
bS's\x00\x00\x00'
p8
tp9
Rp10
aI114
aI114
aI114
aI114
ag1
(g5
S's\x00\x00\x00'
p11
tp12
Rp13
aI93
ag1
(g5
S's\x00\x00\x00'
p14
tp15
Rp16
aI94
aI93
aI116
ag1
(g5
S'\x85\x00\x00\x00'
p17
tp18
Rp19
aI94
aI94
aI95
ag1
(g5
S'_\x00\x00\x00'
p20
tp21
Rp22
aI93
aI114
aI114
aI94
aI92
ag1
(g5
S's\x00\x00\x00'
p23
tp24
Rp25
ag1
(g5
S's\x00\x00\x00'
p26
tp27
Rp28
aI116
aI93
ag1
(g5
S's\x00\x00\x00'
p29
tp30
Rp31
aI116
aI93
aI114
aI94
ag1
(g5
S's\x00\x00\x00'
p32
tp33
Rp34
ag1
(g5
S's\x00\x00\x00'
p35
tp36
Rp37
ag1
(g5
S't\x00\x00\x00'
p38
tp39
Rp40
ag1
(g5
S's\x00\x00\x00'
p41
tp42
Rp43
ag1
(g5
S's\x00\x00\x00'
p44
tp45
Rp46
aI95
ag1
(g5
S't\x00\x00\x00'
p47
tp48
Rp49
aI116
aI94
aI95
ag1
(g5
S's\x00\x00\x00'
p50
tp51
Rp52
aI116
aI93
ag1
(g5
S'r\x00\x00\x00'
p53
tp54
Rp55
ag1
(g5
S'r\x00\x00\x00'
p56
tp57
Rp58
aI94
aI95
aI116
ag1
(g5
S'^\x00\x00\x00'
p59
tp60
Rp61
aI116
aI93
aI138
aI93
aI94
aI114
aI93
aI92
aI93
aI116
ag1
(g5
S'^\x00\x00\x00'
p62
tp63
Rp64
aI94
ag1
(g5
S't\x00\x00\x00'
p65
tp66
Rp67
aI115
aI116
aI95
ag1
(g5
S't\x00\x00\x00'
p68
tp69
Rp70
aI94
ag1
(g5
S'_\x00\x00\x00'
p71
tp72
Rp73
ag1
(g5
S'_\x00\x00\x00'
p74
tp75
Rp76
aI116
aI93
ag1
(g5
S's\x00\x00\x00'
p77
tp78
Rp79
ag1
(g5
S't\x00\x00\x00'
p80
tp81
Rp82
aI93
ag1
(g5
S'^\x00\x00\x00'
p83
tp84
Rp85
ag1
(g5
S'u\x00\x00\x00'
p86
tp87
Rp88
aI95
aI94
ag1
(g5
S'^\x00\x00\x00'
p89
tp90
Rp91
aI93
ag1
(g5
S'u\x00\x00\x00'
p92
tp93
Rp94
ag1
(g5
S't\x00\x00\x00'
p95
tp96
Rp97
aI114
aI94
aI93
ag1
(g5
S't\x00\x00\x00'
p98
tp99
Rp100
ag1
(g5
S't\x00\x00\x00'
p101
tp102
Rp103
ag1
(g5
S's\x00\x00\x00'
p104
tp105
Rp106
aI116
ag1
(g5
S'^\x00\x00\x00'
p107
tp108
Rp109
ag1
(g5
S's\x00\x00\x00'
p110
tp111
Rp112
ag1
(g5
S't\x00\x00\x00'
p113
tp114
Rp115
ag1
(g5
S's\x00\x00\x00'
p116
tp117
Rp118
ag1
(g5
S'_\x00\x00\x00'
p119
tp120
Rp121
ag1
(g5
S's\x00\x00\x00'
p122
tp123
Rp124
aI116
aI112
ag1
(g5
S't\x00\x00\x00'
p125
tp126
Rp127
ag1
(g5
S't\x00\x00\x00'
p128
tp129
Rp130
aI114
a.