(lp0
I113
aI114
aI94
acnumpy.core.multiarray
scalar
p1
(cnumpy
dtype
p2
(S'i4'
p3
I0
I1
tp4
Rp5
(I3
S'<'
p6
NNNI-1
I-1
I0
tp7
bS'\x80\x00\x00\x00'
p8
tp9
Rp10
ag1
(g5
S'\x97\x00\x00\x00'
p11
tp12
Rp13
aI94
ag1
(g5
S'o\x00\x00\x00'
p14
tp15
Rp16
aI114
aI114
ag1
(g5
S'Z\x00\x00\x00'
p17
tp18
Rp19
aI135
ag1
(g5
S'\x83\x00\x00\x00'
p20
tp21
Rp22
aI93
aI95
aI93
aI113
ag1
(g5
S'\x18\x00\x00\x00'
p23
tp24
Rp25
aI93
ag1
(g5
S'1\x00\x00\x00'
p26
tp27
Rp28
aI86
aI116
ag1
(g5
S']\x00\x00\x00'
p29
tp30
Rp31
ag1
(g5
S'\x83\x00\x00\x00'
p32
tp33
Rp34
aI93
ag1
(g5
S'\x86\x00\x00\x00'
p35
tp36
Rp37
aI71
aI69
aI88
ag1
(g5
S'\x86\x00\x00\x00'
p38
tp39
Rp40
aI70
aI92
aI47
aI94
aI95
aI116
aI93
aI95
aI94
ag1
(g5
S't\x00\x00\x00'
p41
tp42
Rp43
ag1
(g5
S'\\\x00\x00\x00'
p44
tp45
Rp46
aI89
aI92
aI114
ag1
(g5
S'\x98\x00\x00\x00'
p47
tp48
Rp49
aI113
aI114
aI114
ag1
(g5
S'r\x00\x00\x00'
p50
tp51
Rp52
aI116
aI93
aI91
aI94
ag1
(g5
S'\x84\x00\x00\x00'
p53
tp54
Rp55
aI93
ag1
(g5
S']\x00\x00\x00'
p56
tp57
Rp58
aI116
aI95
aI95
ag1
(g5
S'r\x00\x00\x00'
p59
tp60
Rp61
ag1
(g5
S'\x83\x00\x00\x00'
p62
tp63
Rp64
ag1
(g5
S'r\x00\x00\x00'
p65
tp66
Rp67
aI94
aI138
aI114
aI133
aI92
aI94
aI95
aI113
aI114
aI95
ag1
(g5
S'\x86\x00\x00\x00'
p68
tp69
Rp70
aI134
ag1
(g5
S'\\\x00\x00\x00'
p71
tp72
Rp73
aI116
ag1
(g5
S't\x00\x00\x00'
p74
tp75
Rp76
aI110
aI94
aI116
ag1
(g5
S']\x00\x00\x00'
p77
tp78
Rp79
aI93
aI95
aI116
aI133
aI92
aI93
ag1
(g5
S']\x00\x00\x00'
p80
tp81
Rp82
aI131
aI94
aI111
ag1
(g5
S'\\\x00\x00\x00'
p83
tp84
Rp85
aI114
ag1
(g5
S'\x86\x00\x00\x00'
p86
tp87
Rp88
ag1
(g5
S's\x00\x00\x00'
p89
tp90
Rp91
aI116
aI93
ag1
(g5
S's\x00\x00\x00'
p92
tp93
Rp94
ag1
(g5
S'\x86\x00\x00\x00'
p95
tp96
Rp97
aI87
aI112
a.