ccopy_reg
_reconstructor
p0
(cnetworkx.classes.graph
Graph
p1
c__builtin__
object
p2
Ntp3
Rp4
(dp5
S'adjlist_inner_dict_factory'
p6
c__builtin__
dict
p7
sS'node_dict_factory'
p8
g7
sS'edge_attr_dict_factory'
p9
g7
sS'_node'
p10
(dp11
I0
(dp12
sI1
(dp13
sI2
(dp14
sI3
(dp15
sI4
(dp16
sI5
(dp17
sI6
(dp18
sI7
(dp19
sI8
(dp20
sI9
(dp21
sI11
(dp22
sI12
(dp23
sI13
(dp24
sI14
(dp25
sI15
(dp26
sI16
(dp27
sI17
(dp28
sI18
(dp29
sI19
(dp30
sI20
(dp31
sI21
(dp32
sI22
(dp33
sI23
(dp34
sI24
(dp35
sI25
(dp36
sI26
(dp37
sI27
(dp38
sI28
(dp39
sI29
(dp40
sI30
(dp41
sI32
(dp42
sI33
(dp43
sI34
(dp44
sI35
(dp45
sI36
(dp46
sI37
(dp47
sI38
(dp48
sI39
(dp49
sI40
(dp50
sI41
(dp51
sI42
(dp52
sI43
(dp53
sI44
(dp54
sI45
(dp55
sI46
(dp56
sI47
(dp57
sI48
(dp58
sI49
(dp59
sI50
(dp60
sI51
(dp61
sI53
(dp62
sI54
(dp63
sI55
(dp64
sI56
(dp65
sI57
(dp66
sI58
(dp67
sI59
(dp68
sI60
(dp69
sI61
(dp70
sI62
(dp71
sI63
(dp72
sI64
(dp73
sI65
(dp74
sI66
(dp75
sI67
(dp76
sI68
(dp77
sI69
(dp78
sI70
(dp79
sI71
(dp80
sI72
(dp81
sI74
(dp82
sI75
(dp83
sI76
(dp84
sI77
(dp85
sI78
(dp86
sI79
(dp87
sI80
(dp88
sI81
(dp89
sI82
(dp90
sI83
(dp91
sI84
(dp92
sI85
(dp93
sI86
(dp94
sI87
(dp95
sI88
(dp96
sI89
(dp97
sI90
(dp98
sI91
(dp99
sI92
(dp100
sI93
(dp101
sI94
(dp102
sI95
(dp103
sI96
(dp104
sI97
(dp105
sI98
(dp106
sI99
(dp107
sI100
(dp108
sI101
(dp109
sI102
(dp110
sI103
(dp111
sI104
(dp112
sI105
(dp113
sI106
(dp114
sI107
(dp115
sI108
(dp116
sI109
(dp117
sI110
(dp118
sI111
(dp119
sI112
(dp120
sI113
(dp121
sI114
(dp122
sI116
(dp123
sI117
(dp124
sI118
(dp125
sI119
(dp126
sI120
(dp127
sI121
(dp128
sI122
(dp129
sI123
(dp130
sI124
(dp131
sI125
(dp132
sI126
(dp133
sI127
(dp134
sI128
(dp135
sI129
(dp136
sI130
(dp137
sI131
(dp138
sI132
(dp139
sI133
(dp140
sI134
(dp141
sI135
(dp142
sI137
(dp143
sI138
(dp144
sI139
(dp145
sI140
(dp146
sI141
(dp147
sI142
(dp148
sI143
(dp149
sI144
(dp150
sI145
(dp151
sI146
(dp152
sI147
(dp153
sI148
(dp154
sI149
(dp155
sI150
(dp156
sI151
(dp157
sI152
(dp158
sI153
(dp159
sI154
(dp160
sI155
(dp161
sI156
(dp162
sI158
(dp163
sI159
(dp164
sI160
(dp165
sI161
(dp166
sI162
(dp167
sI163
(dp168
sI164
(dp169
sI165
(dp170
sI166
(dp171
sI167
(dp172
sI168
(dp173
sI169
(dp174
sI170
(dp175
sI171
(dp176
sI172
(dp177
sI173
(dp178
sI174
(dp179
sI175
(dp180
sI176
(dp181
sI177
(dp182
sI179
(dp183
sI180
(dp184
sI181
(dp185
sI182
(dp186
sI183
(dp187
sI184
(dp188
sI185
(dp189
sI186
(dp190
sI187
(dp191
sI188
(dp192
sI189
(dp193
sI190
(dp194
sI191
(dp195
sI192
(dp196
sI193
(dp197
sI194
(dp198
sI195
(dp199
sI196
(dp200
sI197
(dp201
sI198
(dp202
sI200
(dp203
sI201
(dp204
sI202
(dp205
sI203
(dp206
sI204
(dp207
sI205
(dp208
sI206
(dp209
sI207
(dp210
sI208
(dp211
sI209
(dp212
sI214
(dp213
sI226
(dp214
sI231
(dp215
sI232
(dp216
sI233
(dp217
sI234
(dp218
sI235
(dp219
sI236
(dp220
sI237
(dp221
sI238
(dp222
sI239
(dp223
sI240
(dp224
sI242
(dp225
sI243
(dp226
sI244
(dp227
sI245
(dp228
sI246
(dp229
sI247
(dp230
sI248
(dp231
sI249
(dp232
sI250
(dp233
sI251
(dp234
sI252
(dp235
sI253
(dp236
sI254
(dp237
sI255
(dp238
sI256
(dp239
sI257
(dp240
sI258
(dp241
sI259
(dp242
sI260
(dp243
sI261
(dp244
sI263
(dp245
sI264
(dp246
sI265
(dp247
sI266
(dp248
sI267
(dp249
sI268
(dp250
sI269
(dp251
sI270
(dp252
sI271
(dp253
sI272
(dp254
sI273
(dp255
sI274
(dp256
sI275
(dp257
sI276
(dp258
sI277
(dp259
sI278
(dp260
sI279
(dp261
sI280
(dp262
sI281
(dp263
sI282
(dp264
sI284
(dp265
sI285
(dp266
sI286
(dp267
sI287
(dp268
sI288
(dp269
sI289
(dp270
sI290
(dp271
sI291
(dp272
sI292
(dp273
sI293
(dp274
sI294
(dp275
sI295
(dp276
sI296
(dp277
sI297
(dp278
sI298
(dp279
sI299
(dp280
sI300
(dp281
sI301
(dp282
sI302
(dp283
sI303
(dp284
sI305
(dp285
sI306
(dp286
sI307
(dp287
sI308
(dp288
sI309
(dp289
sI310
(dp290
sI311
(dp291
sI312
(dp292
sI313
(dp293
sI314
(dp294
sI315
(dp295
sI316
(dp296
sI317
(dp297
sI318
(dp298
sI319
(dp299
sI320
(dp300
sI321
(dp301
sI322
(dp302
sI323
(dp303
sI324
(dp304
sI325
(dp305
sI326
(dp306
sI327
(dp307
sI328
(dp308
sI329
(dp309
sI330
(dp310
sI331
(dp311
sI332
(dp312
sI333
(dp313
sI334
(dp314
sI335
(dp315
sI336
(dp316
sI337
(dp317
sI338
(dp318
sI339
(dp319
sI340
(dp320
sI341
(dp321
sI342
(dp322
sI343
(dp323
sI344
(dp324
sI345
(dp325
sI347
(dp326
sI348
(dp327
sI349
(dp328
sI350
(dp329
sI351
(dp330
sI352
(dp331
sI353
(dp332
sI354
(dp333
sI355
(dp334
sI356
(dp335
sI357
(dp336
sI358
(dp337
sI359
(dp338
sI360
(dp339
sI361
(dp340
sI362
(dp341
sI363
(dp342
sI364
(dp343
sI365
(dp344
sI366
(dp345
sI368
(dp346
sI369
(dp347
sI370
(dp348
sI371
(dp349
sI372
(dp350
sI373
(dp351
sI374
(dp352
sI375
(dp353
sI376
(dp354
sI377
(dp355
sI378
(dp356
sI379
(dp357
sI380
(dp358
sI381
(dp359
sI382
(dp360
sI383
(dp361
sI384
(dp362
sI385
(dp363
sI386
(dp364
sI387
(dp365
sI389
(dp366
sI390
(dp367
sI391
(dp368
sI392
(dp369
sI393
(dp370
sI394
(dp371
sI395
(dp372
sI396
(dp373
sI397
(dp374
sI398
(dp375
sI399
(dp376
sI400
(dp377
sI401
(dp378
sI402
(dp379
sI403
(dp380
sI404
(dp381
sI405
(dp382
sI406
(dp383
sI407
(dp384
sI408
(dp385
sI410
(dp386
sI411
(dp387
sI412
(dp388
sI413
(dp389
sI414
(dp390
sI415
(dp391
sI416
(dp392
sI417
(dp393
sI418
(dp394
sI419
(dp395
sI420
(dp396
sI421
(dp397
sI422
(dp398
sI423
(dp399
sI424
(dp400
sI425
(dp401
sI426
(dp402
sI427
(dp403
sI428
(dp404
sI429
(dp405
sI431
(dp406
sI432
(dp407
sI433
(dp408
sI434
(dp409
sI435
(dp410
sI436
(dp411
sI437
(dp412
sI438
(dp413
sI439
(dp414
sI440
(dp415
ssS'graph'
p416
(dp417
sS'root_graph'
p418
g4
sS'_adj'
p419
(dp420
I0
(dp421
I1
(dp422
sI21
(dp423
ssI1
(dp424
I0
g422
sI2
(dp425
sI22
(dp426
ssI2
(dp427
I1
g425
sI3
(dp428
sI23
(dp429
ssI3
(dp430
I24
(dp431
sI2
g428
sI4
(dp432
ssI4
(dp433
I25
(dp434
sI3
g432
sI5
(dp435
ssI5
(dp436
I26
(dp437
sI4
g435
sI6
(dp438
ssI6
(dp439
I27
(dp440
sI5
g438
sI7
(dp441
ssI7
(dp442
I8
(dp443
sI28
(dp444
sI6
g441
ssI8
(dp445
I9
(dp446
sI29
(dp447
sI7
g443
ssI9
(dp448
I8
g446
sI30
(dp449
ssI11
(dp450
I32
(dp451
sI12
(dp452
ssI12
(dp453
I33
(dp454
sI11
g452
sI13
(dp455
ssI13
(dp456
I34
(dp457
sI12
g455
sI14
(dp458
ssI14
(dp459
I35
(dp460
sI13
g458
sI15
(dp461
ssI15
(dp462
I16
(dp463
sI36
(dp464
sI14
g461
ssI16
(dp465
I17
(dp466
sI37
(dp467
sI15
g463
ssI17
(dp468
I16
g466
sI18
(dp469
sI38
(dp470
ssI18
(dp471
I17
g469
sI19
(dp472
sI39
(dp473
ssI19
(dp474
I40
(dp475
sI18
g472
sI20
(dp476
ssI20
(dp477
I41
(dp478
sI19
g476
ssI21
(dp479
I0
g423
sI42
(dp480
sI22
(dp481
ssI22
(dp482
I1
g426
sI43
(dp483
sI21
g481
sI23
(dp484
ssI23
(dp485
I24
(dp486
sI2
g429
sI44
(dp487
sI22
g484
ssI24
(dp488
I25
(dp489
sI3
g431
sI45
(dp490
sI23
g486
ssI25
(dp491
I24
g489
sI26
(dp492
sI4
g434
sI46
(dp493
ssI26
(dp494
I25
g492
sI27
(dp495
sI5
g437
sI47
(dp496
ssI27
(dp497
I48
(dp498
sI26
g495
sI28
(dp499
sI6
g440
ssI28
(dp500
I49
(dp501
sI27
g499
sI29
(dp502
sI7
g444
ssI29
(dp503
I8
g447
sI50
(dp504
sI28
g502
sI30
(dp505
ssI30
(dp506
I9
g449
sI51
(dp507
sI29
g505
ssI32
(dp508
I33
(dp509
sI11
g451
sI53
(dp510
ssI33
(dp511
I32
g509
sI34
(dp512
sI12
g454
sI54
(dp513
ssI34
(dp514
I33
g512
sI35
(dp515
sI13
g457
sI55
(dp516
ssI35
(dp517
I56
(dp518
sI34
g515
sI36
(dp519
sI14
g460
ssI36
(dp520
I57
(dp521
sI35
g519
sI37
(dp522
sI15
g464
ssI37
(dp523
I16
g467
sI58
(dp524
sI36
g522
sI38
(dp525
ssI38
(dp526
I17
g470
sI59
(dp527
sI37
g525
sI39
(dp528
ssI39
(dp529
I40
(dp530
sI18
g473
sI60
(dp531
sI38
g528
ssI40
(dp532
I41
(dp533
sI19
g475
sI61
(dp534
sI39
g530
ssI41
(dp535
I40
g533
sI20
g478
sI62
(dp536
ssI42
(dp537
I43
(dp538
sI21
g480
sI63
(dp539
ssI43
(dp540
I64
(dp541
sI42
g538
sI44
(dp542
sI22
g483
ssI44
(dp543
I65
(dp544
sI43
g542
sI45
(dp545
sI23
g487
ssI45
(dp546
I24
g490
sI66
(dp547
sI44
g545
sI46
(dp548
ssI46
(dp549
I25
g493
sI67
(dp550
sI45
g548
sI47
(dp551
ssI47
(dp552
I48
(dp553
sI26
g496
sI68
(dp554
sI46
g551
ssI48
(dp555
I49
(dp556
sI27
g498
sI69
(dp557
sI47
g553
ssI49
(dp558
I48
g556
sI50
(dp559
sI28
g501
sI70
(dp560
ssI50
(dp561
I49
g559
sI51
(dp562
sI29
g504
sI71
(dp563
ssI51
(dp564
I72
(dp565
sI50
g562
sI30
g507
ssI53
(dp566
I32
g510
sI74
(dp567
sI54
(dp568
ssI54
(dp569
I33
g513
sI75
(dp570
sI53
g568
sI55
(dp571
ssI55
(dp572
I56
(dp573
sI34
g516
sI76
(dp574
sI54
g571
ssI56
(dp575
I57
(dp576
sI35
g518
sI77
(dp577
sI55
g573
ssI57
(dp578
I56
g576
sI58
(dp579
sI36
g521
sI78
(dp580
ssI58
(dp581
I57
g579
sI59
(dp582
sI37
g524
sI79
(dp583
ssI59
(dp584
I80
(dp585
sI58
g582
sI60
(dp586
sI38
g527
ssI60
(dp587
I81
(dp588
sI59
g586
sI61
(dp589
sI39
g531
ssI61
(dp590
I40
g534
sI82
(dp591
sI60
g589
sI62
(dp592
ssI62
(dp593
I41
g536
sI83
(dp594
sI61
g592
ssI63
(dp595
I64
(dp596
sI42
g539
sI84
(dp597
ssI64
(dp598
I65
(dp599
sI43
g541
sI85
(dp600
sI63
g596
ssI65
(dp601
I64
g599
sI66
(dp602
sI44
g544
sI86
(dp603
ssI66
(dp604
I65
g602
sI67
(dp605
sI45
g547
sI87
(dp606
ssI67
(dp607
I88
(dp608
sI66
g605
sI68
(dp609
sI46
g550
ssI68
(dp610
I89
(dp611
sI67
g609
sI69
(dp612
sI47
g554
ssI69
(dp613
I48
g557
sI90
(dp614
sI68
g612
sI70
(dp615
ssI70
(dp616
I49
g560
sI91
(dp617
sI69
g615
sI71
(dp618
ssI71
(dp619
I72
(dp620
sI50
g563
sI92
(dp621
sI70
g618
ssI72
(dp622
I51
g565
sI93
(dp623
sI71
g620
ssI74
(dp624
I75
(dp625
sI53
g567
sI95
(dp626
ssI75
(dp627
I96
(dp628
sI74
g625
sI76
(dp629
sI54
g570
ssI76
(dp630
I97
(dp631
sI75
g629
sI77
(dp632
sI55
g574
ssI77
(dp633
I56
g577
sI98
(dp634
sI76
g632
sI78
(dp635
ssI78
(dp636
I57
g580
sI99
(dp637
sI77
g635
sI79
(dp638
ssI79
(dp639
I80
(dp640
sI58
g583
sI100
(dp641
sI78
g638
ssI80
(dp642
I81
(dp643
sI59
g585
sI101
(dp644
sI79
g640
ssI81
(dp645
I80
g643
sI82
(dp646
sI60
g588
sI102
(dp647
ssI82
(dp648
I81
g646
sI83
(dp649
sI61
g591
sI103
(dp650
ssI83
(dp651
I104
(dp652
sI82
g649
sI62
g594
ssI84
(dp653
I105
(dp654
sI85
(dp655
sI63
g597
ssI85
(dp656
I64
g600
sI106
(dp657
sI84
g655
sI86
(dp658
ssI86
(dp659
I65
g603
sI107
(dp660
sI85
g658
sI87
(dp661
ssI87
(dp662
I88
(dp663
sI66
g606
sI108
(dp664
sI86
g661
ssI88
(dp665
I89
(dp666
sI67
g608
sI109
(dp667
sI87
g663
ssI89
(dp668
I88
g666
sI90
(dp669
sI68
g611
sI110
(dp670
ssI90
(dp671
I89
g669
sI91
(dp672
sI69
g614
sI111
(dp673
ssI91
(dp674
I112
(dp675
sI90
g672
sI92
(dp676
sI70
g617
ssI92
(dp677
I113
(dp678
sI91
g676
sI93
(dp679
sI71
g621
ssI93
(dp680
I72
g623
sI114
(dp681
sI92
g679
sI94
(dp682
ssI94
(dp683
I93
g682
sI95
(dp684
ssI95
(dp685
I96
(dp686
sI74
g626
sI116
(dp687
sI94
g684
ssI96
(dp688
I97
(dp689
sI75
g628
sI117
(dp690
sI95
g686
ssI97
(dp691
I96
g689
sI98
(dp692
sI76
g631
sI118
(dp693
ssI98
(dp694
I97
g692
sI99
(dp695
sI77
g634
sI119
(dp696
ssI99
(dp697
I120
(dp698
sI98
g695
sI100
(dp699
sI78
g637
ssI100
(dp700
I121
(dp701
sI99
g699
sI101
(dp702
sI79
g641
ssI101
(dp703
I80
g644
sI122
(dp704
sI100
g702
sI102
(dp705
ssI102
(dp706
I81
g647
sI123
(dp707
sI101
g705
sI103
(dp708
ssI103
(dp709
I104
(dp710
sI82
g650
sI124
(dp711
sI102
g708
ssI104
(dp712
I83
g652
sI125
(dp713
sI103
g710
ssI105
(dp714
I106
(dp715
sI84
g654
sI126
(dp716
ssI106
(dp717
I105
g715
sI107
(dp718
sI85
g657
sI127
(dp719
ssI107
(dp720
I128
(dp721
sI106
g718
sI108
(dp722
sI86
g660
ssI108
(dp723
I129
(dp724
sI107
g722
sI109
(dp725
sI87
g664
ssI109
(dp726
I88
g667
sI130
(dp727
sI108
g725
sI110
(dp728
ssI110
(dp729
I89
g670
sI131
(dp730
sI109
g728
sI111
(dp731
ssI111
(dp732
I112
(dp733
sI90
g673
sI132
(dp734
sI110
g731
ssI112
(dp735
I113
(dp736
sI91
g675
sI133
(dp737
sI111
g733
ssI113
(dp738
I112
g736
sI114
(dp739
sI92
g678
sI134
(dp740
ssI114
(dp741
I113
g739
sI93
g681
sI135
(dp742
ssI116
(dp743
I137
(dp744
sI117
(dp745
sI95
g687
ssI117
(dp746
I96
g690
sI138
(dp747
sI116
g745
sI118
(dp748
ssI118
(dp749
I97
g693
sI139
(dp750
sI117
g748
sI119
(dp751
ssI119
(dp752
I120
(dp753
sI98
g696
sI140
(dp754
sI118
g751
ssI120
(dp755
I121
(dp756
sI99
g698
sI141
(dp757
sI119
g753
ssI121
(dp758
I120
g756
sI122
(dp759
sI100
g701
sI142
(dp760
ssI122
(dp761
I121
g759
sI123
(dp762
sI101
g704
sI143
(dp763
ssI123
(dp764
I144
(dp765
sI122
g762
sI124
(dp766
sI102
g707
ssI124
(dp767
I145
(dp768
sI123
g766
sI125
(dp769
sI103
g711
ssI125
(dp770
I104
g713
sI146
(dp771
sI124
g769
ssI126
(dp772
I105
g716
sI147
(dp773
sI127
(dp774
ssI127
(dp775
I128
(dp776
sI106
g719
sI148
(dp777
sI126
g774
ssI128
(dp778
I129
(dp779
sI107
g721
sI149
(dp780
sI127
g776
ssI129
(dp781
I128
g779
sI130
(dp782
sI108
g724
sI150
(dp783
ssI130
(dp784
I129
g782
sI131
(dp785
sI109
g727
sI151
(dp786
ssI131
(dp787
I152
(dp788
sI130
g785
sI132
(dp789
sI110
g730
ssI132
(dp790
I153
(dp791
sI131
g789
sI133
(dp792
sI111
g734
ssI133
(dp793
I112
g737
sI154
(dp794
sI132
g792
sI134
(dp795
ssI134
(dp796
I113
g740
sI155
(dp797
sI133
g795
sI135
(dp798
ssI135
(dp799
I114
g742
sI156
(dp800
sI134
g798
ssI137
(dp801
I138
(dp802
sI116
g744
sI158
(dp803
ssI138
(dp804
I137
g802
sI139
(dp805
sI117
g747
sI159
(dp806
ssI139
(dp807
I160
(dp808
sI138
g805
sI140
(dp809
sI118
g750
ssI140
(dp810
I161
(dp811
sI139
g809
sI141
(dp812
sI119
g754
ssI141
(dp813
I120
g757
sI162
(dp814
sI140
g812
sI142
(dp815
ssI142
(dp816
I121
g760
sI163
(dp817
sI141
g815
sI143
(dp818
ssI143
(dp819
I144
(dp820
sI122
g763
sI164
(dp821
sI142
g818
ssI144
(dp822
I145
(dp823
sI123
g765
sI165
(dp824
sI143
g820
ssI145
(dp825
I144
g823
sI146
(dp826
sI124
g768
sI166
(dp827
ssI146
(dp828
I145
g826
sI125
g771
sI167
(dp829
ssI147
(dp830
I168
(dp831
sI148
(dp832
sI126
g773
ssI148
(dp833
I169
(dp834
sI147
g832
sI149
(dp835
sI127
g777
ssI149
(dp836
I128
g780
sI170
(dp837
sI148
g835
sI150
(dp838
ssI150
(dp839
I129
g783
sI171
(dp840
sI149
g838
sI151
(dp841
ssI151
(dp842
I152
(dp843
sI130
g786
sI172
(dp844
sI150
g841
ssI152
(dp845
I153
(dp846
sI131
g788
sI173
(dp847
sI151
g843
ssI153
(dp848
I152
g846
sI154
(dp849
sI132
g791
sI174
(dp850
ssI154
(dp851
I153
g849
sI155
(dp852
sI133
g794
sI175
(dp853
ssI155
(dp854
I176
(dp855
sI154
g852
sI156
(dp856
sI134
g797
ssI156
(dp857
I177
(dp858
sI155
g856
sI135
g800
ssI158
(dp859
I137
g803
sI179
(dp860
sI159
(dp861
ssI159
(dp862
I160
(dp863
sI138
g806
sI180
(dp864
sI158
g861
ssI160
(dp865
I161
(dp866
sI139
g808
sI181
(dp867
sI159
g863
ssI161
(dp868
I160
g866
sI162
(dp869
sI140
g811
sI182
(dp870
ssI162
(dp871
I161
g869
sI163
(dp872
sI141
g814
sI183
(dp873
ssI163
(dp874
I184
(dp875
sI162
g872
sI164
(dp876
sI142
g817
ssI164
(dp877
I185
(dp878
sI163
g876
sI165
(dp879
sI143
g821
ssI165
(dp880
I144
g824
sI186
(dp881
sI164
g879
sI166
(dp882
ssI166
(dp883
I145
g827
sI187
(dp884
sI165
g882
sI167
(dp885
ssI167
(dp886
I146
g829
sI188
(dp887
sI166
g885
ssI168
(dp888
I169
(dp889
sI147
g831
sI189
(dp890
ssI169
(dp891
I168
g889
sI170
(dp892
sI148
g834
sI190
(dp893
ssI170
(dp894
I169
g892
sI171
(dp895
sI149
g837
sI191
(dp896
ssI171
(dp897
I192
(dp898
sI170
g895
sI172
(dp899
sI150
g840
ssI172
(dp900
I193
(dp901
sI171
g899
sI173
(dp902
sI151
g844
ssI173
(dp903
I152
g847
sI194
(dp904
sI172
g902
sI174
(dp905
ssI174
(dp906
I153
g850
sI195
(dp907
sI173
g905
sI175
(dp908
ssI175
(dp909
I176
(dp910
sI154
g853
sI196
(dp911
sI174
g908
ssI176
(dp912
I177
(dp913
sI155
g855
sI197
(dp914
sI175
g910
ssI177
(dp915
I176
g913
sI156
g858
sI198
(dp916
ssI179
(dp917
I200
(dp918
sI180
(dp919
sI158
g860
ssI180
(dp920
I201
(dp921
sI179
g919
sI181
(dp922
sI159
g864
ssI181
(dp923
I160
g867
sI202
(dp924
sI180
g922
sI182
(dp925
ssI182
(dp926
I161
g870
sI203
(dp927
sI181
g925
sI183
(dp928
ssI183
(dp929
I184
(dp930
sI162
g873
sI204
(dp931
sI182
g928
ssI184
(dp932
I185
(dp933
sI163
g875
sI205
(dp934
sI183
g930
ssI185
(dp935
I184
g933
sI186
(dp936
sI164
g878
sI206
(dp937
ssI186
(dp938
I185
g936
sI187
(dp939
sI165
g881
sI207
(dp940
ssI187
(dp941
I208
(dp942
sI186
g939
sI188
(dp943
sI166
g884
ssI188
(dp944
I209
(dp945
sI187
g943
sI167
g887
ssI189
(dp946
I168
g890
sI190
(dp947
ssI190
(dp948
I169
g893
sI189
g947
sI191
(dp949
ssI191
(dp950
I192
(dp951
sI170
g896
sI190
g949
ssI192
(dp952
I193
(dp953
sI171
g898
sI191
g951
ssI193
(dp954
I192
g953
sI194
(dp955
sI172
g901
sI214
(dp956
ssI194
(dp957
I193
g955
sI195
(dp958
sI173
g904
ssI195
(dp959
I194
g958
sI196
(dp960
sI174
g907
ssI196
(dp961
I195
g960
sI197
(dp962
sI175
g911
ssI197
(dp963
I176
g914
sI196
g962
sI198
(dp964
ssI198
(dp965
I177
g916
sI197
g964
ssI200
(dp966
I201
(dp967
sI179
g918
ssI201
(dp968
I200
g967
sI202
(dp969
sI180
g921
ssI202
(dp970
I201
g969
sI203
(dp971
sI181
g924
ssI203
(dp972
I202
g971
sI204
(dp973
sI182
g927
ssI204
(dp974
I203
g973
sI205
(dp975
sI183
g931
ssI205
(dp976
I184
g934
sI226
(dp977
sI204
g975
sI206
(dp978
ssI206
(dp979
I185
g937
sI205
g978
sI207
(dp980
ssI207
(dp981
I208
(dp982
sI186
g940
sI206
g980
ssI208
(dp983
I209
(dp984
sI187
g942
sI207
g982
ssI209
(dp985
I208
g984
sI188
g945
ssI214
(dp986
I193
g956
sI235
(dp987
ssI226
(dp988
I205
g977
sI247
(dp989
ssI231
(dp990
I232
(dp991
sI252
(dp992
ssI232
(dp993
I233
(dp994
sI253
(dp995
sI231
g991
ssI233
(dp996
I232
g994
sI234
(dp997
sI254
(dp998
ssI234
(dp999
I233
g997
sI235
(dp1000
sI255
(dp1001
ssI235
(dp1002
I256
(dp1003
sI234
g1000
sI236
(dp1004
sI214
g987
ssI236
(dp1005
I257
(dp1006
sI235
g1004
sI237
(dp1007
ssI237
(dp1008
I258
(dp1009
sI236
g1007
sI238
(dp1010
ssI238
(dp1011
I259
(dp1012
sI237
g1010
sI239
(dp1013
ssI239
(dp1014
I240
(dp1015
sI260
(dp1016
sI238
g1013
ssI240
(dp1017
I261
(dp1018
sI239
g1015
ssI242
(dp1019
I243
(dp1020
sI263
(dp1021
ssI243
(dp1022
I264
(dp1023
sI242
g1020
sI244
(dp1024
ssI244
(dp1025
I265
(dp1026
sI243
g1024
sI245
(dp1027
ssI245
(dp1028
I266
(dp1029
sI244
g1027
sI246
(dp1030
ssI246
(dp1031
I267
(dp1032
sI245
g1030
sI247
(dp1033
ssI247
(dp1034
I248
(dp1035
sI226
g989
sI268
(dp1036
sI246
g1033
ssI248
(dp1037
I249
(dp1038
sI269
(dp1039
sI247
g1035
ssI249
(dp1040
I248
g1038
sI250
(dp1041
sI270
(dp1042
ssI250
(dp1043
I249
g1041
sI251
(dp1044
sI271
(dp1045
ssI251
(dp1046
I272
(dp1047
sI250
g1044
ssI252
(dp1048
I273
(dp1049
sI253
(dp1050
sI231
g992
ssI253
(dp1051
I232
g995
sI274
(dp1052
sI252
g1050
sI254
(dp1053
ssI254
(dp1054
I233
g998
sI275
(dp1055
sI253
g1053
sI255
(dp1056
ssI255
(dp1057
I256
(dp1058
sI234
g1001
sI276
(dp1059
sI254
g1056
ssI256
(dp1060
I257
(dp1061
sI235
g1003
sI277
(dp1062
sI255
g1058
ssI257
(dp1063
I256
g1061
sI258
(dp1064
sI236
g1006
sI278
(dp1065
ssI258
(dp1066
I257
g1064
sI259
(dp1067
sI237
g1009
sI279
(dp1068
ssI259
(dp1069
I280
(dp1070
sI258
g1067
sI260
(dp1071
sI238
g1012
ssI260
(dp1072
I281
(dp1073
sI259
g1071
sI261
(dp1074
sI239
g1016
ssI261
(dp1075
I240
g1018
sI282
(dp1076
sI260
g1074
ssI263
(dp1077
I264
(dp1078
sI242
g1021
sI284
(dp1079
ssI264
(dp1080
I265
(dp1081
sI243
g1023
sI285
(dp1082
sI263
g1078
ssI265
(dp1083
I264
g1081
sI266
(dp1084
sI244
g1026
sI286
(dp1085
ssI266
(dp1086
I265
g1084
sI267
(dp1087
sI245
g1029
sI287
(dp1088
ssI267
(dp1089
I288
(dp1090
sI266
g1087
sI268
(dp1091
sI246
g1032
ssI268
(dp1092
I289
(dp1093
sI267
g1091
sI269
(dp1094
sI247
g1036
ssI269
(dp1095
I248
g1039
sI290
(dp1096
sI268
g1094
sI270
(dp1097
ssI270
(dp1098
I249
g1042
sI291
(dp1099
sI269
g1097
sI271
(dp1100
ssI271
(dp1101
I272
(dp1102
sI250
g1045
sI292
(dp1103
sI270
g1100
ssI272
(dp1104
I251
g1047
sI293
(dp1105
sI271
g1102
ssI273
(dp1106
I274
(dp1107
sI252
g1049
sI294
(dp1108
ssI274
(dp1109
I273
g1107
sI275
(dp1110
sI253
g1052
sI295
(dp1111
ssI275
(dp1112
I296
(dp1113
sI274
g1110
sI276
(dp1114
sI254
g1055
ssI276
(dp1115
I297
(dp1116
sI275
g1114
sI277
(dp1117
sI255
g1059
ssI277
(dp1118
I256
g1062
sI298
(dp1119
sI276
g1117
sI278
(dp1120
ssI278
(dp1121
I257
g1065
sI299
(dp1122
sI277
g1120
sI279
(dp1123
ssI279
(dp1124
I280
(dp1125
sI258
g1068
sI300
(dp1126
sI278
g1123
ssI280
(dp1127
I281
(dp1128
sI259
g1070
sI301
(dp1129
sI279
g1125
ssI281
(dp1130
I280
g1128
sI282
(dp1131
sI260
g1073
sI302
(dp1132
ssI282
(dp1133
I281
g1131
sI261
g1076
sI303
(dp1134
ssI284
(dp1135
I305
(dp1136
sI285
(dp1137
sI263
g1079
ssI285
(dp1138
I264
g1082
sI306
(dp1139
sI284
g1137
sI286
(dp1140
ssI286
(dp1141
I265
g1085
sI307
(dp1142
sI285
g1140
sI287
(dp1143
ssI287
(dp1144
I288
(dp1145
sI266
g1088
sI308
(dp1146
sI286
g1143
ssI288
(dp1147
I289
(dp1148
sI267
g1090
sI309
(dp1149
sI287
g1145
ssI289
(dp1150
I288
g1148
sI290
(dp1151
sI268
g1093
sI310
(dp1152
ssI290
(dp1153
I289
g1151
sI291
(dp1154
sI269
g1096
sI311
(dp1155
ssI291
(dp1156
I312
(dp1157
sI290
g1154
sI292
(dp1158
sI270
g1099
ssI292
(dp1159
I313
(dp1160
sI291
g1158
sI293
(dp1161
sI271
g1103
ssI293
(dp1162
I272
g1105
sI314
(dp1163
sI292
g1161
ssI294
(dp1164
I273
g1108
sI315
(dp1165
sI295
(dp1166
ssI295
(dp1167
I296
(dp1168
sI274
g1111
sI316
(dp1169
sI294
g1166
ssI296
(dp1170
I297
(dp1171
sI275
g1113
sI317
(dp1172
sI295
g1168
ssI297
(dp1173
I296
g1171
sI298
(dp1174
sI276
g1116
sI318
(dp1175
ssI298
(dp1176
I297
g1174
sI299
(dp1177
sI277
g1119
sI319
(dp1178
ssI299
(dp1179
I320
(dp1180
sI298
g1177
sI300
(dp1181
sI278
g1122
ssI300
(dp1182
I321
(dp1183
sI299
g1181
sI301
(dp1184
sI279
g1126
ssI301
(dp1185
I280
g1129
sI322
(dp1186
sI300
g1184
sI302
(dp1187
ssI302
(dp1188
I281
g1132
sI323
(dp1189
sI301
g1187
sI303
(dp1190
ssI303
(dp1191
I282
g1134
sI324
(dp1192
sI302
g1190
ssI305
(dp1193
I306
(dp1194
sI284
g1136
sI326
(dp1195
ssI306
(dp1196
I305
g1194
sI307
(dp1197
sI285
g1139
sI327
(dp1198
ssI307
(dp1199
I328
(dp1200
sI306
g1197
sI308
(dp1201
sI286
g1142
ssI308
(dp1202
I329
(dp1203
sI307
g1201
sI309
(dp1204
sI287
g1146
ssI309
(dp1205
I288
g1149
sI330
(dp1206
sI308
g1204
sI310
(dp1207
ssI310
(dp1208
I289
g1152
sI331
(dp1209
sI309
g1207
sI311
(dp1210
ssI311
(dp1211
I312
(dp1212
sI290
g1155
sI332
(dp1213
sI310
g1210
ssI312
(dp1214
I313
(dp1215
sI291
g1157
sI333
(dp1216
sI311
g1212
ssI313
(dp1217
I312
g1215
sI314
(dp1218
sI292
g1160
sI334
(dp1219
ssI314
(dp1220
I313
g1218
sI293
g1163
sI335
(dp1221
ssI315
(dp1222
I336
(dp1223
sI316
(dp1224
sI294
g1165
ssI316
(dp1225
I337
(dp1226
sI315
g1224
sI317
(dp1227
sI295
g1169
ssI317
(dp1228
I296
g1172
sI338
(dp1229
sI316
g1227
sI318
(dp1230
ssI318
(dp1231
I297
g1175
sI339
(dp1232
sI317
g1230
sI319
(dp1233
ssI319
(dp1234
I320
(dp1235
sI298
g1178
sI340
(dp1236
sI318
g1233
ssI320
(dp1237
I321
(dp1238
sI299
g1180
sI341
(dp1239
sI319
g1235
ssI321
(dp1240
I320
g1238
sI322
(dp1241
sI300
g1183
sI342
(dp1242
ssI322
(dp1243
I321
g1241
sI323
(dp1244
sI301
g1186
sI343
(dp1245
ssI323
(dp1246
I344
(dp1247
sI322
g1244
sI324
(dp1248
sI302
g1189
ssI324
(dp1249
I345
(dp1250
sI323
g1248
sI325
(dp1251
sI303
g1192
ssI325
(dp1252
I324
g1251
sI326
(dp1253
ssI326
(dp1254
I305
g1195
sI347
(dp1255
sI325
g1253
sI327
(dp1256
ssI327
(dp1257
I328
(dp1258
sI306
g1198
sI348
(dp1259
sI326
g1256
ssI328
(dp1260
I329
(dp1261
sI307
g1200
sI349
(dp1262
sI327
g1258
ssI329
(dp1263
I328
g1261
sI330
(dp1264
sI308
g1203
sI350
(dp1265
ssI330
(dp1266
I329
g1264
sI331
(dp1267
sI309
g1206
sI351
(dp1268
ssI331
(dp1269
I352
(dp1270
sI330
g1267
sI332
(dp1271
sI310
g1209
ssI332
(dp1272
I353
(dp1273
sI331
g1271
sI333
(dp1274
sI311
g1213
ssI333
(dp1275
I312
g1216
sI354
(dp1276
sI332
g1274
sI334
(dp1277
ssI334
(dp1278
I313
g1219
sI355
(dp1279
sI333
g1277
sI335
(dp1280
ssI335
(dp1281
I314
g1221
sI356
(dp1282
sI334
g1280
ssI336
(dp1283
I337
(dp1284
sI315
g1223
sI357
(dp1285
ssI337
(dp1286
I336
g1284
sI338
(dp1287
sI316
g1226
sI358
(dp1288
ssI338
(dp1289
I337
g1287
sI339
(dp1290
sI317
g1229
sI359
(dp1291
ssI339
(dp1292
I360
(dp1293
sI338
g1290
sI340
(dp1294
sI318
g1232
ssI340
(dp1295
I361
(dp1296
sI339
g1294
sI341
(dp1297
sI319
g1236
ssI341
(dp1298
I320
g1239
sI362
(dp1299
sI340
g1297
sI342
(dp1300
ssI342
(dp1301
I321
g1242
sI363
(dp1302
sI341
g1300
sI343
(dp1303
ssI343
(dp1304
I344
(dp1305
sI322
g1245
sI364
(dp1306
sI342
g1303
ssI344
(dp1307
I345
(dp1308
sI323
g1247
sI365
(dp1309
sI343
g1305
ssI345
(dp1310
I344
g1308
sI324
g1250
sI366
(dp1311
ssI347
(dp1312
I368
(dp1313
sI348
(dp1314
sI326
g1255
ssI348
(dp1315
I369
(dp1316
sI347
g1314
sI349
(dp1317
sI327
g1259
ssI349
(dp1318
I328
g1262
sI370
(dp1319
sI348
g1317
sI350
(dp1320
ssI350
(dp1321
I329
g1265
sI371
(dp1322
sI349
g1320
sI351
(dp1323
ssI351
(dp1324
I352
(dp1325
sI330
g1268
sI372
(dp1326
sI350
g1323
ssI352
(dp1327
I353
(dp1328
sI331
g1270
sI373
(dp1329
sI351
g1325
ssI353
(dp1330
I352
g1328
sI354
(dp1331
sI332
g1273
sI374
(dp1332
ssI354
(dp1333
I353
g1331
sI355
(dp1334
sI333
g1276
sI375
(dp1335
ssI355
(dp1336
I376
(dp1337
sI354
g1334
sI356
(dp1338
sI334
g1279
ssI356
(dp1339
I377
(dp1340
sI355
g1338
sI335
g1282
ssI357
(dp1341
I336
g1285
sI378
(dp1342
sI358
(dp1343
ssI358
(dp1344
I337
g1288
sI379
(dp1345
sI357
g1343
sI359
(dp1346
ssI359
(dp1347
I360
(dp1348
sI338
g1291
sI380
(dp1349
sI358
g1346
ssI360
(dp1350
I361
(dp1351
sI339
g1293
sI381
(dp1352
sI359
g1348
ssI361
(dp1353
I360
g1351
sI362
(dp1354
sI340
g1296
sI382
(dp1355
ssI362
(dp1356
I361
g1354
sI363
(dp1357
sI341
g1299
sI383
(dp1358
ssI363
(dp1359
I384
(dp1360
sI362
g1357
sI364
(dp1361
sI342
g1302
ssI364
(dp1362
I385
(dp1363
sI363
g1361
sI365
(dp1364
sI343
g1306
ssI365
(dp1365
I344
g1309
sI386
(dp1366
sI364
g1364
sI366
(dp1367
ssI366
(dp1368
I345
g1311
sI387
(dp1369
sI365
g1367
ssI368
(dp1370
I369
(dp1371
sI347
g1313
sI389
(dp1372
ssI369
(dp1373
I368
g1371
sI370
(dp1374
sI348
g1316
sI390
(dp1375
ssI370
(dp1376
I369
g1374
sI371
(dp1377
sI349
g1319
sI391
(dp1378
ssI371
(dp1379
I392
(dp1380
sI370
g1377
sI372
(dp1381
sI350
g1322
ssI372
(dp1382
I393
(dp1383
sI371
g1381
sI373
(dp1384
sI351
g1326
ssI373
(dp1385
I352
g1329
sI394
(dp1386
sI372
g1384
sI374
(dp1387
ssI374
(dp1388
I353
g1332
sI395
(dp1389
sI373
g1387
sI375
(dp1390
ssI375
(dp1391
I376
(dp1392
sI354
g1335
sI396
(dp1393
sI374
g1390
ssI376
(dp1394
I377
(dp1395
sI355
g1337
sI397
(dp1396
sI375
g1392
ssI377
(dp1397
I376
g1395
sI356
g1340
sI398
(dp1398
ssI378
(dp1399
I379
(dp1400
sI357
g1342
sI399
(dp1401
ssI379
(dp1402
I400
(dp1403
sI378
g1400
sI380
(dp1404
sI358
g1345
ssI380
(dp1405
I401
(dp1406
sI379
g1404
sI381
(dp1407
sI359
g1349
ssI381
(dp1408
I360
g1352
sI402
(dp1409
sI380
g1407
sI382
(dp1410
ssI382
(dp1411
I361
g1355
sI403
(dp1412
sI381
g1410
sI383
(dp1413
ssI383
(dp1414
I384
(dp1415
sI362
g1358
sI404
(dp1416
sI382
g1413
ssI384
(dp1417
I385
(dp1418
sI363
g1360
sI405
(dp1419
sI383
g1415
ssI385
(dp1420
I384
g1418
sI386
(dp1421
sI364
g1363
sI406
(dp1422
ssI386
(dp1423
I385
g1421
sI387
(dp1424
sI365
g1366
sI407
(dp1425
ssI387
(dp1426
I408
(dp1427
sI386
g1424
sI366
g1369
ssI389
(dp1428
I368
g1372
sI410
(dp1429
sI390
(dp1430
ssI390
(dp1431
I369
g1375
sI411
(dp1432
sI389
g1430
sI391
(dp1433
ssI391
(dp1434
I392
(dp1435
sI370
g1378
sI412
(dp1436
sI390
g1433
ssI392
(dp1437
I393
(dp1438
sI371
g1380
sI413
(dp1439
sI391
g1435
ssI393
(dp1440
I392
g1438
sI394
(dp1441
sI372
g1383
sI414
(dp1442
ssI394
(dp1443
I393
g1441
sI395
(dp1444
sI373
g1386
sI415
(dp1445
ssI395
(dp1446
I416
(dp1447
sI394
g1444
sI396
(dp1448
sI374
g1389
ssI396
(dp1449
I417
(dp1450
sI395
g1448
sI397
(dp1451
sI375
g1393
ssI397
(dp1452
I376
g1396
sI418
(dp1453
sI396
g1451
sI398
(dp1454
ssI398
(dp1455
I377
g1398
sI419
(dp1456
sI397
g1454
ssI399
(dp1457
I400
(dp1458
sI378
g1401
sI420
(dp1459
ssI400
(dp1460
I401
(dp1461
sI379
g1403
sI421
(dp1462
sI399
g1458
ssI401
(dp1463
I400
g1461
sI402
(dp1464
sI380
g1406
sI422
(dp1465
ssI402
(dp1466
I401
g1464
sI403
(dp1467
sI381
g1409
sI423
(dp1468
ssI403
(dp1469
I424
(dp1470
sI402
g1467
sI404
(dp1471
sI382
g1412
ssI404
(dp1472
I425
(dp1473
sI403
g1471
sI405
(dp1474
sI383
g1416
ssI405
(dp1475
I384
g1419
sI426
(dp1476
sI404
g1474
sI406
(dp1477
ssI406
(dp1478
I385
g1422
sI427
(dp1479
sI405
g1477
sI407
(dp1480
ssI407
(dp1481
I408
(dp1482
sI386
g1425
sI428
(dp1483
sI406
g1480
ssI408
(dp1484
I387
g1427
sI429
(dp1485
sI407
g1482
ssI410
(dp1486
I411
(dp1487
sI389
g1429
sI431
(dp1488
ssI411
(dp1489
I432
(dp1490
sI410
g1487
sI412
(dp1491
sI390
g1432
ssI412
(dp1492
I433
(dp1493
sI411
g1491
sI413
(dp1494
sI391
g1436
ssI413
(dp1495
I392
g1439
sI434
(dp1496
sI412
g1494
sI414
(dp1497
ssI414
(dp1498
I393
g1442
sI435
(dp1499
sI413
g1497
sI415
(dp1500
ssI415
(dp1501
I416
(dp1502
sI394
g1445
sI436
(dp1503
sI414
g1500
ssI416
(dp1504
I417
(dp1505
sI395
g1447
sI437
(dp1506
sI415
g1502
ssI417
(dp1507
I416
g1505
sI418
(dp1508
sI396
g1450
sI438
(dp1509
ssI418
(dp1510
I417
g1508
sI419
(dp1511
sI397
g1453
sI439
(dp1512
ssI419
(dp1513
I440
(dp1514
sI418
g1511
sI398
g1456
ssI420
(dp1515
I421
(dp1516
sI399
g1459
ssI421
(dp1517
I400
g1462
sI420
g1516
sI422
(dp1518
ssI422
(dp1519
I401
g1465
sI421
g1518
sI423
(dp1520
ssI423
(dp1521
I424
(dp1522
sI402
g1468
sI422
g1520
ssI424
(dp1523
I425
(dp1524
sI403
g1470
sI423
g1522
ssI425
(dp1525
I424
g1524
sI426
(dp1526
sI404
g1473
ssI426
(dp1527
I425
g1526
sI427
(dp1528
sI405
g1476
ssI427
(dp1529
I426
g1528
sI428
(dp1530
sI406
g1479
ssI428
(dp1531
I427
g1530
sI429
(dp1532
sI407
g1483
ssI429
(dp1533
I408
g1485
sI428
g1532
ssI431
(dp1534
I432
(dp1535
sI410
g1488
ssI432
(dp1536
I433
(dp1537
sI411
g1490
sI431
g1535
ssI433
(dp1538
I432
g1537
sI434
(dp1539
sI412
g1493
ssI434
(dp1540
I433
g1539
sI435
(dp1541
sI413
g1496
ssI435
(dp1542
I434
g1541
sI436
(dp1543
sI414
g1499
ssI436
(dp1544
I435
g1543
sI437
(dp1545
sI415
g1503
ssI437
(dp1546
I416
g1506
sI436
g1545
sI438
(dp1547
ssI438
(dp1548
I417
g1509
sI437
g1547
sI439
(dp1549
ssI439
(dp1550
I440
(dp1551
sI418
g1512
sI438
g1549
ssI440
(dp1552
I419
g1514
sI439
g1551
sssS'adjlist_outer_dict_factory'
p1553
g7
sb.