ccopy_reg
_reconstructor
p0
(cnetworkx.classes.graph
Graph
p1
c__builtin__
object
p2
Ntp3
Rp4
(dp5
S'adjlist_inner_dict_factory'
p6
c__builtin__
dict
p7
sS'node_dict_factory'
p8
g7
sS'edge_attr_dict_factory'
p9
g7
sS'_node'
p10
(dp11
I0
(dp12
sI1
(dp13
sI2
(dp14
sI3
(dp15
sI4
(dp16
sI5
(dp17
sI6
(dp18
sI7
(dp19
sI8
(dp20
sI9
(dp21
sI10
(dp22
sI11
(dp23
sI12
(dp24
sI13
(dp25
sI14
(dp26
sI15
(dp27
sI16
(dp28
sI17
(dp29
sI18
(dp30
sI19
(dp31
sI20
(dp32
sI21
(dp33
sI22
(dp34
sI23
(dp35
sI24
(dp36
sI25
(dp37
sI26
(dp38
sI27
(dp39
sI28
(dp40
sI29
(dp41
sI31
(dp42
sI32
(dp43
sI33
(dp44
sI34
(dp45
sI35
(dp46
sI36
(dp47
sI37
(dp48
sI38
(dp49
sI39
(dp50
sI40
(dp51
sI41
(dp52
sI42
(dp53
sI43
(dp54
sI44
(dp55
sI45
(dp56
sI46
(dp57
sI47
(dp58
sI48
(dp59
sI49
(dp60
sI50
(dp61
sI51
(dp62
sI52
(dp63
sI53
(dp64
sI54
(dp65
sI55
(dp66
sI56
(dp67
sI57
(dp68
sI58
(dp69
sI59
(dp70
sI60
(dp71
sI61
(dp72
sI62
(dp73
sI63
(dp74
sI64
(dp75
sI65
(dp76
sI66
(dp77
sI67
(dp78
sI68
(dp79
sI69
(dp80
sI70
(dp81
sI72
(dp82
sI73
(dp83
sI74
(dp84
sI75
(dp85
sI76
(dp86
sI77
(dp87
sI78
(dp88
sI79
(dp89
sI80
(dp90
sI81
(dp91
sI82
(dp92
sI83
(dp93
sI84
(dp94
sI85
(dp95
sI86
(dp96
sI87
(dp97
sI88
(dp98
sI89
(dp99
sI90
(dp100
sI91
(dp101
sI92
(dp102
sI93
(dp103
sI94
(dp104
sI95
(dp105
sI96
(dp106
sI97
(dp107
sI98
(dp108
sI99
(dp109
sI100
(dp110
sI101
(dp111
sI102
(dp112
sI103
(dp113
sI104
(dp114
sI105
(dp115
sI106
(dp116
sI107
(dp117
sI108
(dp118
sI109
(dp119
sI110
(dp120
sI111
(dp121
sI113
(dp122
sI114
(dp123
sI115
(dp124
sI116
(dp125
sI117
(dp126
sI118
(dp127
sI119
(dp128
sI120
(dp129
sI121
(dp130
sI122
(dp131
sI123
(dp132
sI124
(dp133
sI125
(dp134
sI126
(dp135
sI127
(dp136
sI128
(dp137
sI129
(dp138
sI130
(dp139
sI131
(dp140
sI132
(dp141
sI133
(dp142
sI134
(dp143
sI135
(dp144
sI136
(dp145
sI137
(dp146
sI138
(dp147
sI139
(dp148
sI140
(dp149
sI141
(dp150
sI142
(dp151
sI143
(dp152
sI144
(dp153
sI145
(dp154
sI146
(dp155
sI147
(dp156
sI148
(dp157
sI149
(dp158
sI150
(dp159
sI151
(dp160
sI152
(dp161
sI154
(dp162
sI155
(dp163
sI156
(dp164
sI157
(dp165
sI158
(dp166
sI159
(dp167
sI160
(dp168
sI161
(dp169
sI162
(dp170
sI163
(dp171
sI164
(dp172
sI165
(dp173
sI166
(dp174
sI167
(dp175
sI168
(dp176
sI169
(dp177
sI170
(dp178
sI171
(dp179
sI172
(dp180
sI173
(dp181
sI174
(dp182
sI175
(dp183
sI176
(dp184
sI177
(dp185
sI178
(dp186
sI179
(dp187
sI180
(dp188
sI181
(dp189
sI182
(dp190
sI183
(dp191
sI184
(dp192
sI185
(dp193
sI186
(dp194
sI187
(dp195
sI188
(dp196
sI189
(dp197
sI190
(dp198
sI191
(dp199
sI192
(dp200
sI193
(dp201
sI194
(dp202
sI195
(dp203
sI196
(dp204
sI197
(dp205
sI198
(dp206
sI199
(dp207
sI200
(dp208
sI201
(dp209
sI202
(dp210
sI203
(dp211
sI204
(dp212
sI205
(dp213
sI206
(dp214
sI207
(dp215
sI208
(dp216
sI209
(dp217
sI210
(dp218
sI211
(dp219
sI212
(dp220
sI213
(dp221
sI214
(dp222
sI215
(dp223
sI216
(dp224
sI217
(dp225
sI218
(dp226
sI219
(dp227
sI220
(dp228
sI221
(dp229
sI222
(dp230
sI223
(dp231
sI224
(dp232
sI225
(dp233
sI226
(dp234
sI227
(dp235
sI228
(dp236
sI229
(dp237
sI230
(dp238
sI231
(dp239
sI232
(dp240
sI233
(dp241
sI234
(dp242
sI235
(dp243
sI236
(dp244
sI237
(dp245
sI238
(dp246
sI239
(dp247
sI240
(dp248
sI241
(dp249
sI242
(dp250
sI243
(dp251
sI244
(dp252
sI245
(dp253
sI246
(dp254
sI247
(dp255
sI248
(dp256
sI249
(dp257
sI250
(dp258
sI251
(dp259
sI252
(dp260
sI253
(dp261
sI254
(dp262
sI255
(dp263
sI256
(dp264
sI257
(dp265
sI258
(dp266
sI259
(dp267
sI260
(dp268
sI261
(dp269
sI262
(dp270
sI263
(dp271
sI264
(dp272
sI265
(dp273
sI266
(dp274
sI267
(dp275
sI268
(dp276
sI269
(dp277
sI270
(dp278
sI271
(dp279
sI272
(dp280
sI273
(dp281
sI274
(dp282
sI275
(dp283
sI277
(dp284
sI278
(dp285
sI279
(dp286
sI280
(dp287
sI281
(dp288
sI282
(dp289
sI283
(dp290
sI284
(dp291
sI285
(dp292
sI286
(dp293
sI287
(dp294
sI288
(dp295
sI289
(dp296
sI290
(dp297
sI291
(dp298
sI292
(dp299
sI293
(dp300
sI294
(dp301
sI295
(dp302
sI296
(dp303
sI297
(dp304
sI298
(dp305
sI299
(dp306
sI300
(dp307
sI301
(dp308
sI302
(dp309
sI303
(dp310
sI304
(dp311
sI305
(dp312
sI306
(dp313
sI307
(dp314
sI308
(dp315
sI309
(dp316
sI310
(dp317
sI311
(dp318
sI312
(dp319
sI313
(dp320
sI314
(dp321
sI315
(dp322
sI316
(dp323
sI318
(dp324
sI319
(dp325
sI320
(dp326
sI321
(dp327
sI322
(dp328
sI323
(dp329
sI324
(dp330
sI325
(dp331
sI326
(dp332
sI327
(dp333
sI328
(dp334
sI329
(dp335
sI330
(dp336
sI331
(dp337
sI332
(dp338
sI333
(dp339
sI334
(dp340
sI335
(dp341
sI336
(dp342
sI337
(dp343
sI338
(dp344
sI339
(dp345
sI340
(dp346
sI341
(dp347
sI342
(dp348
sI343
(dp349
sI344
(dp350
sI345
(dp351
sI346
(dp352
sI347
(dp353
sI348
(dp354
sI349
(dp355
sI350
(dp356
sI351
(dp357
sI352
(dp358
sI353
(dp359
sI354
(dp360
sI355
(dp361
sI356
(dp362
sI357
(dp363
sI359
(dp364
sI360
(dp365
sI361
(dp366
sI362
(dp367
sI363
(dp368
sI364
(dp369
sI365
(dp370
sI366
(dp371
sI367
(dp372
sI368
(dp373
sI369
(dp374
sI370
(dp375
sI371
(dp376
sI372
(dp377
sI373
(dp378
sI374
(dp379
sI375
(dp380
sI376
(dp381
sI377
(dp382
sI378
(dp383
sI379
(dp384
sI380
(dp385
sI381
(dp386
sI382
(dp387
sI383
(dp388
sI384
(dp389
sI385
(dp390
sI386
(dp391
sI387
(dp392
sI388
(dp393
sI389
(dp394
sI390
(dp395
sI391
(dp396
sI392
(dp397
sI393
(dp398
sI394
(dp399
sI395
(dp400
sI396
(dp401
sI397
(dp402
sI398
(dp403
sI400
(dp404
sI401
(dp405
sI402
(dp406
sI403
(dp407
sI404
(dp408
sI405
(dp409
sI406
(dp410
sI407
(dp411
sI408
(dp412
sI409
(dp413
ssS'graph'
p414
(dp415
sS'root_graph'
p416
g4
sS'_adj'
p417
(dp418
I0
(dp419
I41
(dp420
sI1
(dp421
ssI1
(dp422
I0
g421
sI42
(dp423
sI2
(dp424
ssI2
(dp425
I3
(dp426
sI1
g424
sI43
(dp427
ssI3
(dp428
I4
(dp429
sI2
g426
sI44
(dp430
ssI4
(dp431
I3
g429
sI45
(dp432
sI5
(dp433
ssI5
(dp434
I4
g433
sI6
(dp435
sI46
(dp436
ssI6
(dp437
I7
(dp438
sI5
g435
sI47
(dp439
ssI7
(dp440
I48
(dp441
sI8
(dp442
sI6
g438
ssI8
(dp443
I49
(dp444
sI9
(dp445
sI7
g442
ssI9
(dp446
I8
g445
sI50
(dp447
sI10
(dp448
ssI10
(dp449
I11
(dp450
sI9
g448
sI51
(dp451
ssI11
(dp452
I12
(dp453
sI10
g450
sI52
(dp454
ssI12
(dp455
I11
g453
sI53
(dp456
sI13
(dp457
ssI13
(dp458
I12
g457
sI14
(dp459
sI54
(dp460
ssI14
(dp461
I15
(dp462
sI13
g459
sI55
(dp463
ssI15
(dp464
I56
(dp465
sI16
(dp466
sI14
g462
ssI16
(dp467
I57
(dp468
sI17
(dp469
sI15
g466
ssI17
(dp470
I16
g469
sI58
(dp471
sI18
(dp472
ssI18
(dp473
I19
(dp474
sI17
g472
sI59
(dp475
ssI19
(dp476
I20
(dp477
sI18
g474
sI60
(dp478
ssI20
(dp479
I19
g477
sI61
(dp480
sI21
(dp481
ssI21
(dp482
I20
g481
sI22
(dp483
sI62
(dp484
ssI22
(dp485
I23
(dp486
sI21
g483
sI63
(dp487
ssI23
(dp488
I64
(dp489
sI24
(dp490
sI22
g486
ssI24
(dp491
I65
(dp492
sI25
(dp493
sI23
g490
ssI25
(dp494
I24
g493
sI66
(dp495
sI26
(dp496
ssI26
(dp497
I27
(dp498
sI25
g496
sI67
(dp499
ssI27
(dp500
I28
(dp501
sI26
g498
sI68
(dp502
ssI28
(dp503
I27
g501
sI69
(dp504
sI29
(dp505
ssI29
(dp506
I28
g505
sI70
(dp507
ssI31
(dp508
I72
(dp509
sI32
(dp510
ssI32
(dp511
I73
(dp512
sI33
(dp513
sI31
g510
ssI33
(dp514
I32
g513
sI74
(dp515
sI34
(dp516
ssI34
(dp517
I33
g516
sI75
(dp518
sI35
(dp519
ssI35
(dp520
I36
(dp521
sI34
g519
sI76
(dp522
ssI36
(dp523
I35
g521
sI77
(dp524
sI37
(dp525
ssI37
(dp526
I36
g525
sI38
(dp527
sI78
(dp528
ssI38
(dp529
I39
(dp530
sI37
g527
sI79
(dp531
ssI39
(dp532
I80
(dp533
sI40
(dp534
sI38
g530
ssI40
(dp535
I81
(dp536
sI39
g534
ssI41
(dp537
I0
g420
sI82
(dp538
sI42
(dp539
ssI42
(dp540
I1
g423
sI83
(dp541
sI43
(dp542
sI41
g539
ssI43
(dp543
I44
(dp544
sI2
g427
sI84
(dp545
sI42
g542
ssI44
(dp546
I43
g544
sI3
g430
sI85
(dp547
sI45
(dp548
ssI45
(dp549
I44
g548
sI4
g432
sI46
(dp550
sI86
(dp551
ssI46
(dp552
I47
(dp553
sI87
(dp554
sI5
g436
sI45
g550
ssI47
(dp555
I88
(dp556
sI48
(dp557
sI46
g553
sI6
g439
ssI48
(dp558
I89
(dp559
sI47
g557
sI49
(dp560
sI7
g441
ssI49
(dp561
I8
g444
sI48
g560
sI90
(dp562
sI50
(dp563
ssI50
(dp564
I9
g447
sI91
(dp565
sI51
(dp566
sI49
g563
ssI51
(dp567
I52
(dp568
sI10
g451
sI92
(dp569
sI50
g566
ssI52
(dp570
I51
g568
sI11
g454
sI93
(dp571
sI53
(dp572
ssI53
(dp573
I52
g572
sI12
g456
sI54
(dp574
sI94
(dp575
ssI54
(dp576
I55
(dp577
sI95
(dp578
sI13
g460
sI53
g574
ssI55
(dp579
I96
(dp580
sI56
(dp581
sI54
g577
sI14
g463
ssI56
(dp582
I97
(dp583
sI55
g581
sI57
(dp584
sI15
g465
ssI57
(dp585
I16
g468
sI56
g584
sI98
(dp586
sI58
(dp587
ssI58
(dp588
I17
g471
sI99
(dp589
sI59
(dp590
sI57
g587
ssI59
(dp591
I60
(dp592
sI18
g475
sI100
(dp593
sI58
g590
ssI60
(dp594
I59
g592
sI19
g478
sI101
(dp595
sI61
(dp596
ssI61
(dp597
I60
g596
sI20
g480
sI62
(dp598
sI102
(dp599
ssI62
(dp600
I63
(dp601
sI103
(dp602
sI21
g484
sI61
g598
ssI63
(dp603
I104
(dp604
sI64
(dp605
sI62
g601
sI22
g487
ssI64
(dp606
I105
(dp607
sI63
g605
sI65
(dp608
sI23
g489
ssI65
(dp609
I24
g492
sI64
g608
sI106
(dp610
sI66
(dp611
ssI66
(dp612
I25
g495
sI67
(dp613
sI107
(dp614
sI65
g611
ssI67
(dp615
I68
(dp616
sI26
g499
sI108
(dp617
sI66
g613
ssI68
(dp618
I67
g616
sI27
g502
sI109
(dp619
sI69
(dp620
ssI69
(dp621
I68
g620
sI28
g504
sI70
(dp622
sI110
(dp623
ssI70
(dp624
I111
(dp625
sI29
g507
sI69
g622
ssI72
(dp626
I113
(dp627
sI73
(dp628
sI31
g509
ssI73
(dp629
I32
g512
sI72
g628
sI114
(dp630
sI74
(dp631
ssI74
(dp632
I33
g515
sI75
(dp633
sI115
(dp634
sI73
g631
ssI75
(dp635
I76
(dp636
sI34
g518
sI116
(dp637
sI74
g633
ssI76
(dp638
I75
g636
sI35
g522
sI117
(dp639
sI77
(dp640
ssI77
(dp641
I76
g640
sI36
g524
sI78
(dp642
sI118
(dp643
ssI78
(dp644
I79
(dp645
sI119
(dp646
sI37
g528
sI77
g642
ssI79
(dp647
I120
(dp648
sI80
(dp649
sI78
g645
sI38
g531
ssI80
(dp650
I121
(dp651
sI79
g649
sI81
(dp652
sI39
g533
ssI81
(dp653
I40
g536
sI80
g652
sI122
(dp654
ssI82
(dp655
I41
g538
sI83
(dp656
sI123
(dp657
ssI83
(dp658
I84
(dp659
sI42
g541
sI124
(dp660
sI82
g656
ssI84
(dp661
I83
g659
sI43
g545
sI125
(dp662
sI85
(dp663
ssI85
(dp664
I84
g663
sI44
g547
sI86
(dp665
sI126
(dp666
ssI86
(dp667
I87
(dp668
sI127
(dp669
sI45
g551
sI85
g665
ssI87
(dp670
I128
(dp671
sI88
(dp672
sI86
g668
sI46
g554
ssI88
(dp673
I129
(dp674
sI87
g672
sI89
(dp675
sI47
g556
ssI89
(dp676
I48
g559
sI88
g675
sI130
(dp677
sI90
(dp678
ssI90
(dp679
I49
g562
sI91
(dp680
sI131
(dp681
sI89
g678
ssI91
(dp682
I92
(dp683
sI50
g565
sI132
(dp684
sI90
g680
ssI92
(dp685
I91
g683
sI51
g569
sI133
(dp686
sI93
(dp687
ssI93
(dp688
I92
g687
sI52
g571
sI94
(dp689
sI134
(dp690
ssI94
(dp691
I95
(dp692
sI135
(dp693
sI53
g575
sI93
g689
ssI95
(dp694
I136
(dp695
sI96
(dp696
sI94
g692
sI54
g578
ssI96
(dp697
I137
(dp698
sI95
g696
sI97
(dp699
sI55
g580
ssI97
(dp700
I56
g583
sI96
g699
sI138
(dp701
sI98
(dp702
ssI98
(dp703
I99
(dp704
sI57
g586
sI139
(dp705
sI97
g702
ssI99
(dp706
I100
(dp707
sI58
g589
sI140
(dp708
sI98
g704
ssI100
(dp709
I99
g707
sI59
g593
sI141
(dp710
sI101
(dp711
ssI101
(dp712
I100
g711
sI60
g595
sI102
(dp713
sI142
(dp714
ssI102
(dp715
I103
(dp716
sI143
(dp717
sI61
g599
sI101
g713
ssI103
(dp718
I144
(dp719
sI104
(dp720
sI102
g716
sI62
g602
ssI104
(dp721
I145
(dp722
sI103
g720
sI105
(dp723
sI63
g604
ssI105
(dp724
I64
g607
sI104
g723
sI146
(dp725
sI106
(dp726
ssI106
(dp727
I107
(dp728
sI65
g610
sI147
(dp729
sI105
g726
ssI107
(dp730
I108
(dp731
sI66
g614
sI148
(dp732
sI106
g728
ssI108
(dp733
I107
g731
sI67
g617
sI149
(dp734
sI109
(dp735
ssI109
(dp736
I108
g735
sI68
g619
sI110
(dp737
sI150
(dp738
ssI110
(dp739
I111
(dp740
sI151
(dp741
sI69
g623
sI109
g737
ssI111
(dp742
I152
(dp743
sI110
g740
sI70
g625
ssI113
(dp744
I72
g627
sI154
(dp745
sI114
(dp746
ssI114
(dp747
I115
(dp748
sI73
g630
sI155
(dp749
sI113
g746
ssI115
(dp750
I116
(dp751
sI74
g634
sI156
(dp752
sI114
g748
ssI116
(dp753
I115
g751
sI75
g637
sI157
(dp754
sI117
(dp755
ssI117
(dp756
I116
g755
sI76
g639
sI118
(dp757
sI158
(dp758
ssI118
(dp759
I119
(dp760
sI159
(dp761
sI77
g643
sI117
g757
ssI119
(dp762
I160
(dp763
sI120
(dp764
sI118
g760
sI78
g646
ssI120
(dp765
I161
(dp766
sI119
g764
sI121
(dp767
sI79
g648
ssI121
(dp768
I80
g651
sI120
g767
sI162
(dp769
sI122
(dp770
ssI122
(dp771
I81
g654
sI163
(dp772
sI121
g770
ssI123
(dp773
I124
(dp774
sI82
g657
sI164
(dp775
ssI124
(dp776
I123
g774
sI83
g660
sI165
(dp777
sI125
(dp778
ssI125
(dp779
I124
g778
sI84
g662
sI126
(dp780
sI166
(dp781
ssI126
(dp782
I127
(dp783
sI167
(dp784
sI85
g666
sI125
g780
ssI127
(dp785
I168
(dp786
sI128
(dp787
sI126
g783
sI86
g669
ssI128
(dp788
I129
(dp789
sI169
(dp790
sI127
g787
sI87
g671
ssI129
(dp791
I88
g674
sI128
g789
sI170
(dp792
sI130
(dp793
ssI130
(dp794
I89
g677
sI171
(dp795
sI131
(dp796
sI129
g793
ssI131
(dp797
I132
(dp798
sI90
g681
sI172
(dp799
sI130
g796
ssI132
(dp800
I91
g684
sI131
g798
sI173
(dp801
sI133
(dp802
ssI133
(dp803
I132
g802
sI92
g686
sI134
(dp804
sI174
(dp805
ssI134
(dp806
I175
(dp807
sI135
(dp808
sI93
g690
sI133
g804
ssI135
(dp809
I176
(dp810
sI136
(dp811
sI134
g808
sI94
g693
ssI136
(dp812
I137
(dp813
sI177
(dp814
sI135
g811
sI95
g695
ssI137
(dp815
I96
g698
sI136
g813
sI178
(dp816
sI138
(dp817
ssI138
(dp818
I97
g701
sI179
(dp819
sI139
(dp820
sI137
g817
ssI139
(dp821
I140
(dp822
sI98
g705
sI180
(dp823
sI138
g820
ssI140
(dp824
I99
g708
sI139
g822
sI181
(dp825
sI141
(dp826
ssI141
(dp827
I140
g826
sI100
g710
sI142
(dp828
sI182
(dp829
ssI142
(dp830
I183
(dp831
sI143
(dp832
sI101
g714
sI141
g828
ssI143
(dp833
I184
(dp834
sI144
(dp835
sI142
g832
sI102
g717
ssI144
(dp836
I145
(dp837
sI185
(dp838
sI143
g835
sI103
g719
ssI145
(dp839
I104
g722
sI144
g837
sI186
(dp840
sI146
(dp841
ssI146
(dp842
I105
g725
sI187
(dp843
sI147
(dp844
sI145
g841
ssI147
(dp845
I148
(dp846
sI106
g729
sI188
(dp847
sI146
g844
ssI148
(dp848
I107
g732
sI147
g846
sI189
(dp849
sI149
(dp850
ssI149
(dp851
I148
g850
sI108
g734
sI150
(dp852
sI190
(dp853
ssI150
(dp854
I191
(dp855
sI151
(dp856
sI109
g738
sI149
g852
ssI151
(dp857
I192
(dp858
sI152
(dp859
sI150
g856
sI110
g741
ssI152
(dp860
I193
(dp861
sI151
g859
sI111
g743
ssI154
(dp862
I113
g745
sI195
(dp863
sI155
(dp864
ssI155
(dp865
I156
(dp866
sI114
g749
sI196
(dp867
sI154
g864
ssI156
(dp868
I115
g752
sI155
g866
sI197
(dp869
sI157
(dp870
ssI157
(dp871
I156
g870
sI116
g754
sI158
(dp872
sI198
(dp873
ssI158
(dp874
I199
(dp875
sI159
(dp876
sI117
g758
sI157
g872
ssI159
(dp877
I200
(dp878
sI160
(dp879
sI158
g876
sI118
g761
ssI160
(dp880
I201
(dp881
sI159
g879
sI161
(dp882
sI119
g763
ssI161
(dp883
I120
g766
sI160
g882
sI202
(dp884
sI162
(dp885
ssI162
(dp886
I121
g769
sI203
(dp887
sI163
(dp888
sI161
g885
ssI163
(dp889
I122
g772
sI204
(dp890
sI162
g888
ssI164
(dp891
I123
g775
sI205
(dp892
sI165
(dp893
ssI165
(dp894
I164
g893
sI124
g777
sI166
(dp895
sI206
(dp896
ssI166
(dp897
I167
(dp898
sI207
(dp899
sI125
g781
sI165
g895
ssI167
(dp900
I208
(dp901
sI168
(dp902
sI166
g898
sI126
g784
ssI168
(dp903
I209
(dp904
sI167
g902
sI169
(dp905
sI127
g786
ssI169
(dp906
I128
g790
sI168
g905
sI210
(dp907
sI170
(dp908
ssI170
(dp909
I129
g792
sI211
(dp910
sI171
(dp911
sI169
g908
ssI171
(dp912
I172
(dp913
sI130
g795
sI212
(dp914
sI170
g911
ssI172
(dp915
I173
(dp916
sI131
g799
sI171
g913
sI213
(dp917
ssI173
(dp918
I172
g916
sI132
g801
sI174
(dp919
sI214
(dp920
ssI174
(dp921
I175
(dp922
sI215
(dp923
sI133
g805
sI173
g919
ssI175
(dp924
I216
(dp925
sI176
(dp926
sI174
g922
sI134
g807
ssI176
(dp927
I217
(dp928
sI175
g926
sI177
(dp929
sI135
g810
ssI177
(dp930
I136
g814
sI176
g929
sI218
(dp931
sI178
(dp932
ssI178
(dp933
I137
g816
sI219
(dp934
sI179
(dp935
sI177
g932
ssI179
(dp936
I180
(dp937
sI138
g819
sI220
(dp938
sI178
g935
ssI180
(dp939
I181
(dp940
sI139
g823
sI179
g937
sI221
(dp941
ssI181
(dp942
I180
g940
sI140
g825
sI182
(dp943
sI222
(dp944
ssI182
(dp945
I183
(dp946
sI223
(dp947
sI141
g829
sI181
g943
ssI183
(dp948
I224
(dp949
sI184
(dp950
sI182
g946
sI142
g831
ssI184
(dp951
I225
(dp952
sI183
g950
sI185
(dp953
sI143
g834
ssI185
(dp954
I144
g838
sI184
g953
sI226
(dp955
sI186
(dp956
ssI186
(dp957
I145
g840
sI227
(dp958
sI187
(dp959
sI185
g956
ssI187
(dp960
I188
(dp961
sI146
g843
sI228
(dp962
sI186
g959
ssI188
(dp963
I189
(dp964
sI147
g847
sI187
g961
sI229
(dp965
ssI189
(dp966
I188
g964
sI148
g849
sI190
(dp967
sI230
(dp968
ssI190
(dp969
I191
(dp970
sI231
(dp971
sI149
g853
sI189
g967
ssI191
(dp972
I232
(dp973
sI192
(dp974
sI190
g970
sI150
g855
ssI192
(dp975
I233
(dp976
sI193
(dp977
sI191
g974
sI151
g858
ssI193
(dp978
I152
g861
sI192
g977
sI234
(dp979
sI194
(dp980
ssI194
(dp981
I193
g980
sI235
(dp982
sI195
(dp983
ssI195
(dp984
I196
(dp985
sI154
g863
sI236
(dp986
sI194
g983
ssI196
(dp987
I155
g867
sI237
(dp988
sI195
g985
sI197
(dp989
ssI197
(dp990
I196
g989
sI156
g869
sI198
(dp991
sI238
(dp992
ssI198
(dp993
I239
(dp994
sI157
g873
sI199
(dp995
sI197
g991
ssI199
(dp996
I240
(dp997
sI200
(dp998
sI198
g995
sI158
g875
ssI200
(dp999
I241
(dp1000
sI201
(dp1001
sI199
g998
sI159
g878
ssI201
(dp1002
I160
g881
sI200
g1001
sI242
(dp1003
sI202
(dp1004
ssI202
(dp1005
I161
g884
sI243
(dp1006
sI203
(dp1007
sI201
g1004
ssI203
(dp1008
I204
(dp1009
sI162
g887
sI244
(dp1010
sI202
g1007
ssI204
(dp1011
I163
g890
sI245
(dp1012
sI203
g1009
ssI205
(dp1013
I164
g892
sI206
(dp1014
sI246
(dp1015
ssI206
(dp1016
I247
(dp1017
sI165
g896
sI207
(dp1018
sI205
g1014
ssI207
(dp1019
I248
(dp1020
sI208
(dp1021
sI206
g1018
sI166
g899
ssI208
(dp1022
I249
(dp1023
sI209
(dp1024
sI207
g1021
sI167
g901
ssI209
(dp1025
I168
g904
sI208
g1024
sI250
(dp1026
sI210
(dp1027
ssI210
(dp1028
I169
g907
sI251
(dp1029
sI211
(dp1030
sI209
g1027
ssI211
(dp1031
I212
(dp1032
sI170
g910
sI252
(dp1033
sI210
g1030
ssI212
(dp1034
I171
g914
sI253
(dp1035
sI211
g1032
sI213
(dp1036
ssI213
(dp1037
I212
g1036
sI172
g917
sI214
(dp1038
sI254
(dp1039
ssI214
(dp1040
I255
(dp1041
sI173
g920
sI215
(dp1042
sI213
g1038
ssI215
(dp1043
I256
(dp1044
sI216
(dp1045
sI214
g1042
sI174
g923
ssI216
(dp1046
I257
(dp1047
sI217
(dp1048
sI215
g1045
sI175
g925
ssI217
(dp1049
I176
g928
sI216
g1048
sI258
(dp1050
sI218
(dp1051
ssI218
(dp1052
I177
g931
sI259
(dp1053
sI219
(dp1054
sI217
g1051
ssI219
(dp1055
I220
(dp1056
sI178
g934
sI260
(dp1057
sI218
g1054
ssI220
(dp1058
I179
g938
sI261
(dp1059
sI219
g1056
sI221
(dp1060
ssI221
(dp1061
I220
g1060
sI180
g941
sI222
(dp1062
sI262
(dp1063
ssI222
(dp1064
I263
(dp1065
sI181
g944
sI223
(dp1066
sI221
g1062
ssI223
(dp1067
I264
(dp1068
sI224
(dp1069
sI222
g1066
sI182
g947
ssI224
(dp1070
I225
(dp1071
sI265
(dp1072
sI223
g1069
sI183
g949
ssI225
(dp1073
I184
g952
sI224
g1071
sI266
(dp1074
sI226
(dp1075
ssI226
(dp1076
I185
g955
sI267
(dp1077
sI227
(dp1078
sI225
g1075
ssI227
(dp1079
I228
(dp1080
sI186
g958
sI268
(dp1081
sI226
g1078
ssI228
(dp1082
I229
(dp1083
sI187
g962
sI269
(dp1084
sI227
g1080
ssI229
(dp1085
I228
g1083
sI188
g965
sI230
(dp1086
sI270
(dp1087
ssI230
(dp1088
I271
(dp1089
sI231
(dp1090
sI189
g968
sI229
g1086
ssI231
(dp1091
I272
(dp1092
sI232
(dp1093
sI230
g1090
sI190
g971
ssI232
(dp1094
I233
(dp1095
sI273
(dp1096
sI231
g1093
sI191
g973
ssI233
(dp1097
I192
g976
sI232
g1095
sI274
(dp1098
sI234
(dp1099
ssI234
(dp1100
I193
g979
sI275
(dp1101
sI235
(dp1102
sI233
g1099
ssI235
(dp1103
I194
g982
sI236
(dp1104
sI234
g1102
ssI236
(dp1105
I237
(dp1106
sI195
g986
sI277
(dp1107
sI235
g1104
ssI237
(dp1108
I236
g1106
sI196
g988
sI238
(dp1109
sI278
(dp1110
ssI238
(dp1111
I279
(dp1112
sI239
(dp1113
sI197
g992
sI237
g1109
ssI239
(dp1114
I280
(dp1115
sI240
(dp1116
sI238
g1113
sI198
g994
ssI240
(dp1117
I241
(dp1118
sI281
(dp1119
sI239
g1116
sI199
g997
ssI241
(dp1120
I200
g1000
sI240
g1118
sI282
(dp1121
sI242
(dp1122
ssI242
(dp1123
I201
g1003
sI283
(dp1124
sI243
(dp1125
sI241
g1122
ssI243
(dp1126
I244
(dp1127
sI202
g1006
sI284
(dp1128
sI242
g1125
ssI244
(dp1129
I245
(dp1130
sI203
g1010
sI285
(dp1131
sI243
g1127
ssI245
(dp1132
I244
g1130
sI204
g1012
sI286
(dp1133
ssI246
(dp1134
I247
(dp1135
sI205
g1015
sI287
(dp1136
ssI247
(dp1137
I288
(dp1138
sI248
(dp1139
sI246
g1135
sI206
g1017
ssI248
(dp1140
I249
(dp1141
sI289
(dp1142
sI247
g1139
sI207
g1020
ssI249
(dp1143
I208
g1023
sI248
g1141
sI290
(dp1144
sI250
(dp1145
ssI250
(dp1146
I209
g1026
sI291
(dp1147
sI251
(dp1148
sI249
g1145
ssI251
(dp1149
I252
(dp1150
sI210
g1029
sI292
(dp1151
sI250
g1148
ssI252
(dp1152
I253
(dp1153
sI211
g1033
sI293
(dp1154
sI251
g1150
ssI253
(dp1155
I252
g1153
sI212
g1035
sI254
(dp1156
sI294
(dp1157
ssI254
(dp1158
I295
(dp1159
sI255
(dp1160
sI213
g1039
sI253
g1156
ssI255
(dp1161
I296
(dp1162
sI256
(dp1163
sI254
g1160
sI214
g1041
ssI256
(dp1164
I297
(dp1165
sI255
g1163
sI257
(dp1166
sI215
g1044
ssI257
(dp1167
I216
g1047
sI256
g1166
sI298
(dp1168
sI258
(dp1169
ssI258
(dp1170
I259
(dp1171
sI217
g1050
sI299
(dp1172
sI257
g1169
ssI259
(dp1173
I260
(dp1174
sI218
g1053
sI300
(dp1175
sI258
g1171
ssI260
(dp1176
I259
g1174
sI219
g1057
sI301
(dp1177
sI261
(dp1178
ssI261
(dp1179
I260
g1178
sI220
g1059
sI262
(dp1180
sI302
(dp1181
ssI262
(dp1182
I263
(dp1183
sI303
(dp1184
sI221
g1063
sI261
g1180
ssI263
(dp1185
I304
(dp1186
sI264
(dp1187
sI262
g1183
sI222
g1065
ssI264
(dp1188
I305
(dp1189
sI263
g1187
sI265
(dp1190
sI223
g1068
ssI265
(dp1191
I224
g1072
sI264
g1190
sI306
(dp1192
sI266
(dp1193
ssI266
(dp1194
I267
(dp1195
sI225
g1074
sI307
(dp1196
sI265
g1193
ssI267
(dp1197
I268
(dp1198
sI226
g1077
sI308
(dp1199
sI266
g1195
ssI268
(dp1200
I267
g1198
sI227
g1081
sI309
(dp1201
sI269
(dp1202
ssI269
(dp1203
I268
g1202
sI228
g1084
sI270
(dp1204
sI310
(dp1205
ssI270
(dp1206
I271
(dp1207
sI311
(dp1208
sI229
g1087
sI269
g1204
ssI271
(dp1209
I312
(dp1210
sI272
(dp1211
sI270
g1207
sI230
g1089
ssI272
(dp1212
I313
(dp1213
sI271
g1211
sI273
(dp1214
sI231
g1092
ssI273
(dp1215
I232
g1096
sI272
g1214
sI314
(dp1216
sI274
(dp1217
ssI274
(dp1218
I275
(dp1219
sI233
g1098
sI315
(dp1220
sI273
g1217
ssI275
(dp1221
I234
g1101
sI316
(dp1222
sI274
g1219
ssI277
(dp1223
I236
g1107
sI278
(dp1224
sI318
(dp1225
ssI278
(dp1226
I279
(dp1227
sI319
(dp1228
sI237
g1110
sI277
g1224
ssI279
(dp1229
I320
(dp1230
sI280
(dp1231
sI278
g1227
sI238
g1112
ssI280
(dp1232
I321
(dp1233
sI279
g1231
sI281
(dp1234
sI239
g1115
ssI281
(dp1235
I240
g1119
sI280
g1234
sI322
(dp1236
sI282
(dp1237
ssI282
(dp1238
I283
(dp1239
sI241
g1121
sI323
(dp1240
sI281
g1237
ssI283
(dp1241
I284
(dp1242
sI242
g1124
sI324
(dp1243
sI282
g1239
ssI284
(dp1244
I283
g1242
sI243
g1128
sI325
(dp1245
sI285
(dp1246
ssI285
(dp1247
I284
g1246
sI244
g1131
sI286
(dp1248
sI326
(dp1249
ssI286
(dp1250
I327
(dp1251
sI245
g1133
sI285
g1248
ssI287
(dp1252
I328
(dp1253
sI288
(dp1254
sI246
g1136
ssI288
(dp1255
I329
(dp1256
sI287
g1254
sI289
(dp1257
sI247
g1138
ssI289
(dp1258
I248
g1142
sI288
g1257
sI330
(dp1259
sI290
(dp1260
ssI290
(dp1261
I249
g1144
sI331
(dp1262
sI291
(dp1263
sI289
g1260
ssI291
(dp1264
I292
(dp1265
sI250
g1147
sI332
(dp1266
sI290
g1263
ssI292
(dp1267
I291
g1265
sI251
g1151
sI333
(dp1268
sI293
(dp1269
ssI293
(dp1270
I292
g1269
sI252
g1154
sI294
(dp1271
sI334
(dp1272
ssI294
(dp1273
I295
(dp1274
sI335
(dp1275
sI253
g1157
sI293
g1271
ssI295
(dp1276
I336
(dp1277
sI296
(dp1278
sI294
g1274
sI254
g1159
ssI296
(dp1279
I337
(dp1280
sI295
g1278
sI297
(dp1281
sI255
g1162
ssI297
(dp1282
I256
g1165
sI296
g1281
sI338
(dp1283
sI298
(dp1284
ssI298
(dp1285
I257
g1168
sI339
(dp1286
sI299
(dp1287
sI297
g1284
ssI299
(dp1288
I300
(dp1289
sI258
g1172
sI340
(dp1290
sI298
g1287
ssI300
(dp1291
I299
g1289
sI259
g1175
sI341
(dp1292
sI301
(dp1293
ssI301
(dp1294
I300
g1293
sI260
g1177
sI302
(dp1295
sI342
(dp1296
ssI302
(dp1297
I303
(dp1298
sI343
(dp1299
sI261
g1181
sI301
g1295
ssI303
(dp1300
I344
(dp1301
sI304
(dp1302
sI302
g1298
sI262
g1184
ssI304
(dp1303
I345
(dp1304
sI303
g1302
sI305
(dp1305
sI263
g1186
ssI305
(dp1306
I264
g1189
sI304
g1305
sI346
(dp1307
sI306
(dp1308
ssI306
(dp1309
I265
g1192
sI347
(dp1310
sI307
(dp1311
sI305
g1308
ssI307
(dp1312
I308
(dp1313
sI266
g1196
sI348
(dp1314
sI306
g1311
ssI308
(dp1315
I307
g1313
sI267
g1199
sI349
(dp1316
sI309
(dp1317
ssI309
(dp1318
I308
g1317
sI268
g1201
sI310
(dp1319
sI350
(dp1320
ssI310
(dp1321
I311
(dp1322
sI351
(dp1323
sI269
g1205
sI309
g1319
ssI311
(dp1324
I352
(dp1325
sI312
(dp1326
sI310
g1322
sI270
g1208
ssI312
(dp1327
I353
(dp1328
sI311
g1326
sI313
(dp1329
sI271
g1210
ssI313
(dp1330
I272
g1213
sI312
g1329
sI354
(dp1331
sI314
(dp1332
ssI314
(dp1333
I273
g1216
sI355
(dp1334
sI315
(dp1335
sI313
g1332
ssI315
(dp1336
I316
(dp1337
sI274
g1220
sI356
(dp1338
sI314
g1335
ssI316
(dp1339
I315
g1337
sI275
g1222
sI357
(dp1340
ssI318
(dp1341
I319
(dp1342
sI277
g1225
sI359
(dp1343
ssI319
(dp1344
I360
(dp1345
sI320
(dp1346
sI318
g1342
sI278
g1228
ssI320
(dp1347
I361
(dp1348
sI319
g1346
sI321
(dp1349
sI279
g1230
ssI321
(dp1350
I280
g1233
sI320
g1349
sI362
(dp1351
sI322
(dp1352
ssI322
(dp1353
I281
g1236
sI323
(dp1354
sI363
(dp1355
sI321
g1352
ssI323
(dp1356
I324
(dp1357
sI282
g1240
sI364
(dp1358
sI322
g1354
ssI324
(dp1359
I323
g1357
sI283
g1243
sI365
(dp1360
sI325
(dp1361
ssI325
(dp1362
I324
g1361
sI284
g1245
sI326
(dp1363
sI366
(dp1364
ssI326
(dp1365
I327
(dp1366
sI367
(dp1367
sI285
g1249
sI325
g1363
ssI327
(dp1368
I368
(dp1369
sI326
g1366
sI286
g1251
ssI328
(dp1370
I369
(dp1371
sI329
(dp1372
sI287
g1253
ssI329
(dp1373
I288
g1256
sI328
g1372
sI370
(dp1374
sI330
(dp1375
ssI330
(dp1376
I289
g1259
sI331
(dp1377
sI371
(dp1378
sI329
g1375
ssI331
(dp1379
I332
(dp1380
sI290
g1262
sI372
(dp1381
sI330
g1377
ssI332
(dp1382
I331
g1380
sI291
g1266
sI373
(dp1383
sI333
(dp1384
ssI333
(dp1385
I332
g1384
sI292
g1268
sI334
(dp1386
sI374
(dp1387
ssI334
(dp1388
I335
(dp1389
sI375
(dp1390
sI293
g1272
sI333
g1386
ssI335
(dp1391
I376
(dp1392
sI336
(dp1393
sI334
g1389
sI294
g1275
ssI336
(dp1394
I377
(dp1395
sI335
g1393
sI337
(dp1396
sI295
g1277
ssI337
(dp1397
I296
g1280
sI336
g1396
sI378
(dp1398
sI338
(dp1399
ssI338
(dp1400
I297
g1283
sI339
(dp1401
sI379
(dp1402
sI337
g1399
ssI339
(dp1403
I340
(dp1404
sI298
g1286
sI380
(dp1405
sI338
g1401
ssI340
(dp1406
I339
g1404
sI299
g1290
sI381
(dp1407
sI341
(dp1408
ssI341
(dp1409
I340
g1408
sI300
g1292
sI342
(dp1410
sI382
(dp1411
ssI342
(dp1412
I343
(dp1413
sI383
(dp1414
sI301
g1296
sI341
g1410
ssI343
(dp1415
I384
(dp1416
sI344
(dp1417
sI342
g1413
sI302
g1299
ssI344
(dp1418
I385
(dp1419
sI343
g1417
sI345
(dp1420
sI303
g1301
ssI345
(dp1421
I304
g1304
sI344
g1420
sI386
(dp1422
sI346
(dp1423
ssI346
(dp1424
I305
g1307
sI347
(dp1425
sI387
(dp1426
sI345
g1423
ssI347
(dp1427
I348
(dp1428
sI306
g1310
sI388
(dp1429
sI346
g1425
ssI348
(dp1430
I347
g1428
sI307
g1314
sI389
(dp1431
sI349
(dp1432
ssI349
(dp1433
I348
g1432
sI308
g1316
sI350
(dp1434
sI390
(dp1435
ssI350
(dp1436
I351
(dp1437
sI391
(dp1438
sI309
g1320
sI349
g1434
ssI351
(dp1439
I392
(dp1440
sI352
(dp1441
sI350
g1437
sI310
g1323
ssI352
(dp1442
I393
(dp1443
sI351
g1441
sI353
(dp1444
sI311
g1325
ssI353
(dp1445
I312
g1328
sI352
g1444
sI394
(dp1446
sI354
(dp1447
ssI354
(dp1448
I355
(dp1449
sI313
g1331
sI395
(dp1450
sI353
g1447
ssI355
(dp1451
I356
(dp1452
sI314
g1334
sI396
(dp1453
sI354
g1449
ssI356
(dp1454
I355
g1452
sI315
g1338
sI397
(dp1455
sI357
(dp1456
ssI357
(dp1457
I356
g1456
sI316
g1340
sI398
(dp1458
ssI359
(dp1459
I400
(dp1460
sI360
(dp1461
sI318
g1343
ssI360
(dp1462
I401
(dp1463
sI359
g1461
sI361
(dp1464
sI319
g1345
ssI361
(dp1465
I320
g1348
sI360
g1464
sI402
(dp1466
sI362
(dp1467
ssI362
(dp1468
I363
(dp1469
sI321
g1351
sI403
(dp1470
sI361
g1467
ssI363
(dp1471
I364
(dp1472
sI322
g1355
sI404
(dp1473
sI362
g1469
ssI364
(dp1474
I363
g1472
sI323
g1358
sI405
(dp1475
sI365
(dp1476
ssI365
(dp1477
I364
g1476
sI324
g1360
sI366
(dp1478
sI406
(dp1479
ssI366
(dp1480
I367
(dp1481
sI407
(dp1482
sI325
g1364
sI365
g1478
ssI367
(dp1483
I408
(dp1484
sI368
(dp1485
sI366
g1481
sI326
g1367
ssI368
(dp1486
I409
(dp1487
sI367
g1485
sI327
g1369
ssI369
(dp1488
I328
g1371
sI370
(dp1489
ssI370
(dp1490
I329
g1374
sI371
(dp1491
sI369
g1489
ssI371
(dp1492
I330
g1378
sI372
(dp1493
sI370
g1491
ssI372
(dp1494
I371
g1493
sI331
g1381
sI373
(dp1495
ssI373
(dp1496
I372
g1495
sI332
g1383
sI374
(dp1497
ssI374
(dp1498
I375
(dp1499
sI333
g1387
sI373
g1497
ssI375
(dp1500
I376
(dp1501
sI374
g1499
sI334
g1390
ssI376
(dp1502
I377
(dp1503
sI375
g1501
sI335
g1392
ssI377
(dp1504
I336
g1395
sI376
g1503
sI378
(dp1505
ssI378
(dp1506
I337
g1398
sI379
(dp1507
sI377
g1505
ssI379
(dp1508
I338
g1402
sI380
(dp1509
sI378
g1507
ssI380
(dp1510
I379
g1509
sI339
g1405
sI381
(dp1511
ssI381
(dp1512
I380
g1511
sI340
g1407
sI382
(dp1513
ssI382
(dp1514
I383
(dp1515
sI341
g1411
sI381
g1513
ssI383
(dp1516
I384
(dp1517
sI382
g1515
sI342
g1414
ssI384
(dp1518
I385
(dp1519
sI383
g1517
sI343
g1416
ssI385
(dp1520
I344
g1419
sI384
g1519
sI386
(dp1521
ssI386
(dp1522
I345
g1422
sI387
(dp1523
sI385
g1521
ssI387
(dp1524
I346
g1426
sI388
(dp1525
sI386
g1523
ssI388
(dp1526
I347
g1429
sI387
g1525
sI389
(dp1527
ssI389
(dp1528
I388
g1527
sI348
g1431
sI390
(dp1529
ssI390
(dp1530
I391
(dp1531
sI349
g1435
sI389
g1529
ssI391
(dp1532
I392
(dp1533
sI390
g1531
sI350
g1438
ssI392
(dp1534
I393
(dp1535
sI391
g1533
sI351
g1440
ssI393
(dp1536
I352
g1443
sI392
g1535
sI394
(dp1537
ssI394
(dp1538
I353
g1446
sI395
(dp1539
sI393
g1537
ssI395
(dp1540
I354
g1450
sI396
(dp1541
sI394
g1539
ssI396
(dp1542
I355
g1453
sI395
g1541
sI397
(dp1543
ssI397
(dp1544
I396
g1543
sI356
g1455
sI398
(dp1545
ssI398
(dp1546
I357
g1458
sI397
g1545
ssI400
(dp1547
I401
(dp1548
sI359
g1460
ssI401
(dp1549
I360
g1463
sI400
g1548
sI402
(dp1550
ssI402
(dp1551
I361
g1466
sI403
(dp1552
sI401
g1550
ssI403
(dp1553
I362
g1470
sI404
(dp1554
sI402
g1552
ssI404
(dp1555
I363
g1473
sI403
g1554
sI405
(dp1556
ssI405
(dp1557
I404
g1556
sI364
g1475
sI406
(dp1558
ssI406
(dp1559
I407
(dp1560
sI365
g1479
sI405
g1558
ssI407
(dp1561
I408
(dp1562
sI406
g1560
sI366
g1482
ssI408
(dp1563
I409
(dp1564
sI407
g1562
sI367
g1484
ssI409
(dp1565
I368
g1487
sI408
g1564
sssS'adjlist_outer_dict_factory'
p1566
g7
sb.