ccopy_reg
_reconstructor
p0
(cnetworkx.classes.graph
Graph
p1
c__builtin__
object
p2
Ntp3
Rp4
(dp5
S'adjlist_inner_dict_factory'
p6
c__builtin__
dict
p7
sS'node_dict_factory'
p8
g7
sS'edge_attr_dict_factory'
p9
g7
sS'_node'
p10
(dp11
I0
(dp12
sI1
(dp13
sI2
(dp14
sI3
(dp15
sI4
(dp16
sI5
(dp17
sI6
(dp18
sI7
(dp19
sI8
(dp20
sI9
(dp21
sI10
(dp22
sI11
(dp23
sI12
(dp24
sI13
(dp25
sI14
(dp26
sI15
(dp27
sI16
(dp28
sI17
(dp29
sI18
(dp30
sI19
(dp31
sI20
(dp32
sI21
(dp33
sI22
(dp34
sI23
(dp35
sI24
(dp36
sI25
(dp37
sI26
(dp38
sI27
(dp39
sI28
(dp40
sI29
(dp41
sI31
(dp42
sI32
(dp43
sI33
(dp44
sI34
(dp45
sI35
(dp46
sI36
(dp47
sI37
(dp48
sI38
(dp49
sI39
(dp50
sI40
(dp51
sI41
(dp52
sI42
(dp53
sI43
(dp54
sI44
(dp55
sI45
(dp56
sI46
(dp57
sI47
(dp58
sI48
(dp59
sI49
(dp60
sI50
(dp61
sI51
(dp62
sI52
(dp63
sI53
(dp64
sI54
(dp65
sI55
(dp66
sI56
(dp67
sI57
(dp68
sI58
(dp69
sI59
(dp70
sI60
(dp71
sI61
(dp72
sI62
(dp73
sI63
(dp74
sI64
(dp75
sI65
(dp76
sI66
(dp77
sI67
(dp78
sI68
(dp79
sI69
(dp80
sI70
(dp81
sI71
(dp82
sI72
(dp83
sI73
(dp84
sI74
(dp85
sI75
(dp86
sI76
(dp87
sI77
(dp88
sI78
(dp89
sI79
(dp90
sI80
(dp91
sI81
(dp92
sI82
(dp93
sI83
(dp94
sI84
(dp95
sI85
(dp96
sI86
(dp97
sI87
(dp98
sI88
(dp99
sI89
(dp100
sI90
(dp101
sI92
(dp102
sI93
(dp103
sI94
(dp104
sI95
(dp105
sI96
(dp106
sI97
(dp107
sI98
(dp108
sI99
(dp109
sI100
(dp110
sI101
(dp111
sI102
(dp112
sI103
(dp113
sI104
(dp114
sI105
(dp115
sI106
(dp116
sI107
(dp117
sI108
(dp118
sI109
(dp119
sI110
(dp120
sI111
(dp121
sI112
(dp122
sI113
(dp123
sI114
(dp124
sI115
(dp125
sI116
(dp126
sI117
(dp127
sI118
(dp128
sI119
(dp129
sI120
(dp130
sI121
(dp131
sI122
(dp132
sI123
(dp133
sI124
(dp134
sI125
(dp135
sI126
(dp136
sI127
(dp137
sI128
(dp138
sI129
(dp139
sI130
(dp140
sI131
(dp141
sI132
(dp142
sI133
(dp143
sI134
(dp144
sI135
(dp145
sI136
(dp146
sI137
(dp147
sI138
(dp148
sI139
(dp149
sI140
(dp150
sI141
(dp151
sI142
(dp152
sI143
(dp153
sI144
(dp154
sI145
(dp155
sI146
(dp156
sI147
(dp157
sI148
(dp158
sI149
(dp159
sI150
(dp160
sI151
(dp161
sI153
(dp162
sI154
(dp163
sI155
(dp164
sI156
(dp165
sI157
(dp166
sI158
(dp167
sI159
(dp168
sI160
(dp169
sI161
(dp170
sI162
(dp171
sI163
(dp172
sI164
(dp173
sI165
(dp174
sI166
(dp175
sI167
(dp176
sI168
(dp177
sI169
(dp178
sI170
(dp179
sI171
(dp180
sI172
(dp181
sI173
(dp182
sI174
(dp183
sI175
(dp184
sI176
(dp185
sI177
(dp186
sI178
(dp187
sI179
(dp188
sI180
(dp189
sI181
(dp190
sI182
(dp191
sI183
(dp192
sI184
(dp193
sI185
(dp194
sI186
(dp195
sI187
(dp196
sI188
(dp197
sI189
(dp198
sI190
(dp199
sI191
(dp200
sI192
(dp201
sI193
(dp202
sI194
(dp203
sI195
(dp204
sI196
(dp205
sI197
(dp206
sI198
(dp207
sI199
(dp208
sI200
(dp209
sI201
(dp210
sI202
(dp211
sI203
(dp212
sI204
(dp213
sI205
(dp214
sI206
(dp215
sI207
(dp216
sI208
(dp217
sI209
(dp218
sI210
(dp219
sI211
(dp220
sI212
(dp221
sI214
(dp222
sI215
(dp223
sI216
(dp224
sI217
(dp225
sI218
(dp226
sI219
(dp227
sI220
(dp228
sI221
(dp229
sI222
(dp230
sI223
(dp231
sI224
(dp232
sI225
(dp233
sI226
(dp234
sI227
(dp235
sI228
(dp236
sI229
(dp237
sI230
(dp238
sI231
(dp239
sI232
(dp240
sI233
(dp241
sI234
(dp242
sI235
(dp243
sI236
(dp244
sI237
(dp245
sI238
(dp246
sI239
(dp247
sI240
(dp248
sI241
(dp249
sI242
(dp250
sI243
(dp251
sI244
(dp252
sI245
(dp253
sI246
(dp254
sI247
(dp255
sI248
(dp256
sI249
(dp257
sI250
(dp258
sI251
(dp259
sI252
(dp260
sI253
(dp261
sI254
(dp262
sI255
(dp263
sI256
(dp264
sI257
(dp265
sI258
(dp266
sI259
(dp267
sI260
(dp268
sI261
(dp269
sI262
(dp270
sI263
(dp271
sI264
(dp272
sI265
(dp273
sI266
(dp274
sI267
(dp275
sI268
(dp276
sI269
(dp277
sI270
(dp278
sI271
(dp279
sI272
(dp280
sI273
(dp281
sI274
(dp282
sI275
(dp283
sI276
(dp284
sI277
(dp285
sI278
(dp286
sI279
(dp287
sI280
(dp288
sI281
(dp289
sI282
(dp290
sI283
(dp291
sI284
(dp292
sI285
(dp293
sI286
(dp294
sI287
(dp295
sI288
(dp296
sI289
(dp297
sI290
(dp298
sI291
(dp299
sI292
(dp300
sI293
(dp301
sI294
(dp302
sI295
(dp303
sI296
(dp304
sI297
(dp305
sI298
(dp306
sI299
(dp307
sI300
(dp308
sI301
(dp309
sI302
(dp310
sI303
(dp311
sI304
(dp312
sI305
(dp313
sI306
(dp314
sI307
(dp315
sI308
(dp316
sI309
(dp317
sI310
(dp318
sI311
(dp319
sI312
(dp320
sI313
(dp321
sI314
(dp322
sI315
(dp323
sI316
(dp324
sI317
(dp325
sI318
(dp326
sI319
(dp327
sI320
(dp328
sI321
(dp329
sI322
(dp330
sI323
(dp331
sI324
(dp332
sI325
(dp333
sI326
(dp334
sI327
(dp335
sI328
(dp336
sI329
(dp337
sI330
(dp338
sI331
(dp339
sI332
(dp340
sI333
(dp341
sI334
(dp342
sI335
(dp343
sI336
(dp344
sI337
(dp345
sI338
(dp346
sI339
(dp347
sI340
(dp348
sI341
(dp349
sI342
(dp350
sI343
(dp351
sI344
(dp352
sI345
(dp353
sI346
(dp354
sI347
(dp355
sI348
(dp356
sI349
(dp357
sI350
(dp358
sI351
(dp359
sI352
(dp360
sI353
(dp361
sI354
(dp362
sI355
(dp363
sI356
(dp364
sI357
(dp365
sI358
(dp366
sI359
(dp367
sI360
(dp368
sI361
(dp369
sI362
(dp370
sI363
(dp371
sI364
(dp372
sI365
(dp373
sI366
(dp374
sI367
(dp375
sI368
(dp376
sI369
(dp377
sI370
(dp378
sI371
(dp379
sI372
(dp380
sI373
(dp381
sI374
(dp382
sI375
(dp383
sI376
(dp384
sI377
(dp385
sI378
(dp386
sI379
(dp387
sI380
(dp388
sI381
(dp389
sI382
(dp390
sI383
(dp391
sI384
(dp392
sI385
(dp393
sI386
(dp394
sI387
(dp395
sI388
(dp396
sI389
(dp397
sI390
(dp398
sI391
(dp399
sI392
(dp400
sI393
(dp401
sI394
(dp402
sI395
(dp403
sI397
(dp404
sI398
(dp405
sI399
(dp406
sI400
(dp407
sI401
(dp408
sI402
(dp409
sI403
(dp410
sI404
(dp411
sI405
(dp412
sI406
(dp413
sI407
(dp414
sI408
(dp415
sI409
(dp416
sI410
(dp417
sI411
(dp418
sI412
(dp419
sI413
(dp420
sI414
(dp421
sI415
(dp422
sI416
(dp423
sI417
(dp424
sI418
(dp425
sI419
(dp426
sI420
(dp427
sI421
(dp428
sI422
(dp429
sI423
(dp430
sI424
(dp431
sI425
(dp432
sI426
(dp433
sI427
(dp434
sI428
(dp435
sI429
(dp436
sI430
(dp437
sI431
(dp438
sI432
(dp439
sI433
(dp440
sI434
(dp441
sI435
(dp442
sI436
(dp443
sI437
(dp444
sI438
(dp445
sI439
(dp446
sI440
(dp447
sI441
(dp448
sI442
(dp449
sI443
(dp450
sI444
(dp451
sI445
(dp452
sI446
(dp453
sI447
(dp454
sI448
(dp455
sI449
(dp456
sI450
(dp457
sI451
(dp458
sI452
(dp459
sI453
(dp460
sI454
(dp461
sI455
(dp462
sI456
(dp463
sI458
(dp464
sI459
(dp465
sI460
(dp466
sI461
(dp467
sI462
(dp468
sI463
(dp469
sI464
(dp470
sI465
(dp471
sI466
(dp472
sI467
(dp473
sI468
(dp474
sI469
(dp475
sI470
(dp476
sI471
(dp477
sI472
(dp478
sI473
(dp479
sI474
(dp480
sI475
(dp481
sI476
(dp482
sI477
(dp483
sI478
(dp484
sI479
(dp485
sI480
(dp486
sI481
(dp487
sI482
(dp488
sI483
(dp489
sI484
(dp490
sI485
(dp491
sI486
(dp492
sI487
(dp493
sI488
(dp494
sI489
(dp495
sI490
(dp496
sI491
(dp497
sI492
(dp498
sI493
(dp499
sI494
(dp500
sI495
(dp501
sI496
(dp502
sI497
(dp503
sI498
(dp504
sI499
(dp505
sI500
(dp506
sI501
(dp507
sI502
(dp508
sI503
(dp509
sI504
(dp510
sI505
(dp511
sI506
(dp512
sI507
(dp513
sI508
(dp514
sI509
(dp515
sI510
(dp516
sI511
(dp517
sI512
(dp518
sI513
(dp519
sI514
(dp520
sI515
(dp521
sI516
(dp522
sI517
(dp523
sI519
(dp524
sI520
(dp525
sI521
(dp526
sI522
(dp527
sI523
(dp528
sI524
(dp529
sI525
(dp530
sI526
(dp531
sI527
(dp532
sI528
(dp533
sI529
(dp534
sI530
(dp535
sI531
(dp536
sI532
(dp537
sI533
(dp538
sI534
(dp539
sI535
(dp540
sI536
(dp541
sI537
(dp542
sI538
(dp543
sI539
(dp544
sI540
(dp545
sI541
(dp546
sI542
(dp547
sI543
(dp548
sI544
(dp549
sI545
(dp550
sI546
(dp551
sI547
(dp552
sI548
(dp553
sI549
(dp554
sI550
(dp555
sI551
(dp556
sI552
(dp557
sI553
(dp558
sI554
(dp559
sI555
(dp560
sI556
(dp561
sI557
(dp562
sI558
(dp563
sI559
(dp564
sI560
(dp565
sI561
(dp566
sI562
(dp567
sI563
(dp568
sI564
(dp569
sI565
(dp570
sI566
(dp571
sI567
(dp572
sI568
(dp573
sI569
(dp574
sI570
(dp575
sI571
(dp576
sI572
(dp577
sI573
(dp578
sI574
(dp579
sI575
(dp580
sI576
(dp581
sI577
(dp582
sI578
(dp583
sI580
(dp584
sI581
(dp585
sI582
(dp586
sI583
(dp587
sI584
(dp588
sI585
(dp589
sI586
(dp590
sI587
(dp591
sI588
(dp592
sI589
(dp593
sI590
(dp594
sI591
(dp595
sI592
(dp596
sI593
(dp597
sI594
(dp598
sI595
(dp599
sI596
(dp600
sI597
(dp601
sI598
(dp602
sI599
(dp603
sI600
(dp604
sI601
(dp605
sI602
(dp606
sI603
(dp607
sI604
(dp608
sI605
(dp609
sI606
(dp610
sI607
(dp611
sI608
(dp612
sI609
(dp613
ssS'graph'
p614
(dp615
sS'root_graph'
p616
g4
sS'_adj'
p617
(dp618
I0
(dp619
I1
(dp620
sI61
(dp621
ssI1
(dp622
I0
g620
sI2
(dp623
sI62
(dp624
ssI2
(dp625
I1
g623
sI3
(dp626
sI63
(dp627
ssI3
(dp628
I64
(dp629
sI2
g626
sI4
(dp630
ssI4
(dp631
I65
(dp632
sI3
g630
sI5
(dp633
ssI5
(dp634
I66
(dp635
sI4
g633
sI6
(dp636
ssI6
(dp637
I67
(dp638
sI5
g636
sI7
(dp639
ssI7
(dp640
I8
(dp641
sI68
(dp642
sI6
g639
ssI8
(dp643
I9
(dp644
sI69
(dp645
sI7
g641
ssI9
(dp646
I8
g644
sI10
(dp647
sI70
(dp648
ssI10
(dp649
I9
g647
sI11
(dp650
sI71
(dp651
ssI11
(dp652
I72
(dp653
sI10
g650
sI12
(dp654
ssI12
(dp655
I73
(dp656
sI11
g654
sI13
(dp657
ssI13
(dp658
I74
(dp659
sI12
g657
sI14
(dp660
ssI14
(dp661
I75
(dp662
sI13
g660
sI15
(dp663
ssI15
(dp664
I16
(dp665
sI76
(dp666
sI14
g663
ssI16
(dp667
I17
(dp668
sI77
(dp669
sI15
g665
ssI17
(dp670
I16
g668
sI18
(dp671
sI78
(dp672
ssI18
(dp673
I17
g671
sI19
(dp674
sI79
(dp675
ssI19
(dp676
I80
(dp677
sI18
g674
sI20
(dp678
ssI20
(dp679
I81
(dp680
sI19
g678
sI21
(dp681
ssI21
(dp682
I82
(dp683
sI20
g681
sI22
(dp684
ssI22
(dp685
I83
(dp686
sI21
g684
sI23
(dp687
ssI23
(dp688
I24
(dp689
sI84
(dp690
sI22
g687
ssI24
(dp691
I25
(dp692
sI85
(dp693
sI23
g689
ssI25
(dp694
I24
g692
sI26
(dp695
sI86
(dp696
ssI26
(dp697
I25
g695
sI27
(dp698
sI87
(dp699
ssI27
(dp700
I88
(dp701
sI26
g698
sI28
(dp702
ssI28
(dp703
I89
(dp704
sI27
g702
sI29
(dp705
ssI29
(dp706
I90
(dp707
sI28
g705
ssI31
(dp708
I32
(dp709
sI92
(dp710
ssI32
(dp711
I33
(dp712
sI93
(dp713
sI31
g709
ssI33
(dp714
I32
g712
sI34
(dp715
sI94
(dp716
ssI34
(dp717
I33
g715
sI35
(dp718
sI95
(dp719
ssI35
(dp720
I96
(dp721
sI34
g718
sI36
(dp722
ssI36
(dp723
I97
(dp724
sI35
g722
sI37
(dp725
ssI37
(dp726
I98
(dp727
sI36
g725
sI38
(dp728
ssI38
(dp729
I99
(dp730
sI37
g728
sI39
(dp731
ssI39
(dp732
I40
(dp733
sI100
(dp734
sI38
g731
ssI40
(dp735
I41
(dp736
sI101
(dp737
sI39
g733
ssI41
(dp738
I40
g736
sI42
(dp739
sI102
(dp740
ssI42
(dp741
I41
g739
sI43
(dp742
sI103
(dp743
ssI43
(dp744
I104
(dp745
sI42
g742
sI44
(dp746
ssI44
(dp747
I105
(dp748
sI43
g746
sI45
(dp749
ssI45
(dp750
I106
(dp751
sI44
g749
sI46
(dp752
ssI46
(dp753
I107
(dp754
sI45
g752
sI47
(dp755
ssI47
(dp756
I48
(dp757
sI108
(dp758
sI46
g755
ssI48
(dp759
I49
(dp760
sI109
(dp761
sI47
g757
ssI49
(dp762
I48
g760
sI50
(dp763
sI110
(dp764
ssI50
(dp765
I49
g763
sI51
(dp766
sI111
(dp767
ssI51
(dp768
I112
(dp769
sI50
g766
sI52
(dp770
ssI52
(dp771
I113
(dp772
sI51
g770
sI53
(dp773
ssI53
(dp774
I114
(dp775
sI52
g773
sI54
(dp776
ssI54
(dp777
I115
(dp778
sI53
g776
sI55
(dp779
ssI55
(dp780
I56
(dp781
sI116
(dp782
sI54
g779
ssI56
(dp783
I57
(dp784
sI117
(dp785
sI55
g781
ssI57
(dp786
I56
g784
sI58
(dp787
sI118
(dp788
ssI58
(dp789
I57
g787
sI59
(dp790
sI119
(dp791
ssI59
(dp792
I120
(dp793
sI58
g790
sI60
(dp794
ssI60
(dp795
I121
(dp796
sI59
g794
ssI61
(dp797
I0
g621
sI122
(dp798
sI62
(dp799
ssI62
(dp800
I1
g624
sI123
(dp801
sI61
g799
sI63
(dp802
ssI63
(dp803
I64
(dp804
sI2
g627
sI124
(dp805
sI62
g802
ssI64
(dp806
I65
(dp807
sI3
g629
sI125
(dp808
sI63
g804
ssI65
(dp809
I64
g807
sI66
(dp810
sI4
g632
sI126
(dp811
ssI66
(dp812
I65
g810
sI67
(dp813
sI5
g635
sI127
(dp814
ssI67
(dp815
I128
(dp816
sI66
g813
sI68
(dp817
sI6
g638
ssI68
(dp818
I129
(dp819
sI67
g817
sI69
(dp820
sI7
g642
ssI69
(dp821
I8
g645
sI130
(dp822
sI68
g820
sI70
(dp823
ssI70
(dp824
I9
g648
sI131
(dp825
sI69
g823
sI71
(dp826
ssI71
(dp827
I72
(dp828
sI10
g651
sI132
(dp829
sI70
g826
ssI72
(dp830
I73
(dp831
sI11
g653
sI133
(dp832
sI71
g828
ssI73
(dp833
I72
g831
sI74
(dp834
sI12
g656
sI134
(dp835
ssI74
(dp836
I73
g834
sI75
(dp837
sI13
g659
sI135
(dp838
ssI75
(dp839
I136
(dp840
sI74
g837
sI76
(dp841
sI14
g662
ssI76
(dp842
I137
(dp843
sI75
g841
sI77
(dp844
sI15
g666
ssI77
(dp845
I16
g669
sI138
(dp846
sI76
g844
sI78
(dp847
ssI78
(dp848
I17
g672
sI139
(dp849
sI77
g847
sI79
(dp850
ssI79
(dp851
I80
(dp852
sI18
g675
sI140
(dp853
sI78
g850
ssI80
(dp854
I81
(dp855
sI19
g677
sI141
(dp856
sI79
g852
ssI81
(dp857
I80
g855
sI82
(dp858
sI20
g680
sI142
(dp859
ssI82
(dp860
I81
g858
sI83
(dp861
sI21
g683
sI143
(dp862
ssI83
(dp863
I144
(dp864
sI82
g861
sI84
(dp865
sI22
g686
ssI84
(dp866
I145
(dp867
sI83
g865
sI85
(dp868
sI23
g690
ssI85
(dp869
I24
g693
sI146
(dp870
sI84
g868
sI86
(dp871
ssI86
(dp872
I25
g696
sI147
(dp873
sI85
g871
sI87
(dp874
ssI87
(dp875
I88
(dp876
sI26
g699
sI148
(dp877
sI86
g874
ssI88
(dp878
I89
(dp879
sI27
g701
sI149
(dp880
sI87
g876
ssI89
(dp881
I88
g879
sI90
(dp882
sI28
g704
sI150
(dp883
ssI90
(dp884
I89
g882
sI29
g707
sI151
(dp885
ssI92
(dp886
I153
(dp887
sI93
(dp888
sI31
g710
ssI93
(dp889
I32
g713
sI154
(dp890
sI92
g888
sI94
(dp891
ssI94
(dp892
I33
g716
sI155
(dp893
sI93
g891
sI95
(dp894
ssI95
(dp895
I96
(dp896
sI34
g719
sI156
(dp897
sI94
g894
ssI96
(dp898
I97
(dp899
sI35
g721
sI157
(dp900
sI95
g896
ssI97
(dp901
I96
g899
sI98
(dp902
sI36
g724
sI158
(dp903
ssI98
(dp904
I97
g902
sI99
(dp905
sI37
g727
sI159
(dp906
ssI99
(dp907
I160
(dp908
sI98
g905
sI100
(dp909
sI38
g730
ssI100
(dp910
I161
(dp911
sI99
g909
sI101
(dp912
sI39
g734
ssI101
(dp913
I40
g737
sI162
(dp914
sI100
g912
sI102
(dp915
ssI102
(dp916
I41
g740
sI163
(dp917
sI101
g915
sI103
(dp918
ssI103
(dp919
I104
(dp920
sI42
g743
sI164
(dp921
sI102
g918
ssI104
(dp922
I105
(dp923
sI43
g745
sI165
(dp924
sI103
g920
ssI105
(dp925
I104
g923
sI106
(dp926
sI44
g748
sI166
(dp927
ssI106
(dp928
I105
g926
sI107
(dp929
sI45
g751
sI167
(dp930
ssI107
(dp931
I168
(dp932
sI106
g929
sI108
(dp933
sI46
g754
ssI108
(dp934
I169
(dp935
sI107
g933
sI109
(dp936
sI47
g758
ssI109
(dp937
I48
g761
sI170
(dp938
sI108
g936
sI110
(dp939
ssI110
(dp940
I49
g764
sI171
(dp941
sI109
g939
sI111
(dp942
ssI111
(dp943
I112
(dp944
sI50
g767
sI172
(dp945
sI110
g942
ssI112
(dp946
I113
(dp947
sI51
g769
sI173
(dp948
sI111
g944
ssI113
(dp949
I112
g947
sI114
(dp950
sI52
g772
sI174
(dp951
ssI114
(dp952
I113
g950
sI115
(dp953
sI53
g775
sI175
(dp954
ssI115
(dp955
I176
(dp956
sI114
g953
sI116
(dp957
sI54
g778
ssI116
(dp958
I177
(dp959
sI115
g957
sI117
(dp960
sI55
g782
ssI117
(dp961
I56
g785
sI178
(dp962
sI116
g960
sI118
(dp963
ssI118
(dp964
I57
g788
sI179
(dp965
sI117
g963
sI119
(dp966
ssI119
(dp967
I120
(dp968
sI58
g791
sI180
(dp969
sI118
g966
ssI120
(dp970
I121
(dp971
sI59
g793
sI181
(dp972
sI119
g968
ssI121
(dp973
I120
g971
sI60
g796
sI182
(dp974
ssI122
(dp975
I123
(dp976
sI61
g798
sI183
(dp977
ssI123
(dp978
I184
(dp979
sI122
g976
sI124
(dp980
sI62
g801
ssI124
(dp981
I185
(dp982
sI123
g980
sI125
(dp983
sI63
g805
ssI125
(dp984
I64
g808
sI186
(dp985
sI124
g983
sI126
(dp986
ssI126
(dp987
I65
g811
sI187
(dp988
sI125
g986
sI127
(dp989
ssI127
(dp990
I128
(dp991
sI66
g814
sI188
(dp992
sI126
g989
ssI128
(dp993
I129
(dp994
sI67
g816
sI189
(dp995
sI127
g991
ssI129
(dp996
I128
g994
sI130
(dp997
sI68
g819
sI190
(dp998
ssI130
(dp999
I129
g997
sI131
(dp1000
sI69
g822
sI191
(dp1001
ssI131
(dp1002
I192
(dp1003
sI130
g1000
sI132
(dp1004
sI70
g825
ssI132
(dp1005
I193
(dp1006
sI131
g1004
sI133
(dp1007
sI71
g829
ssI133
(dp1008
I72
g832
sI194
(dp1009
sI132
g1007
sI134
(dp1010
ssI134
(dp1011
I73
g835
sI195
(dp1012
sI133
g1010
sI135
(dp1013
ssI135
(dp1014
I136
(dp1015
sI74
g838
sI196
(dp1016
sI134
g1013
ssI136
(dp1017
I137
(dp1018
sI75
g840
sI197
(dp1019
sI135
g1015
ssI137
(dp1020
I136
g1018
sI138
(dp1021
sI76
g843
sI198
(dp1022
ssI138
(dp1023
I137
g1021
sI139
(dp1024
sI77
g846
sI199
(dp1025
ssI139
(dp1026
I200
(dp1027
sI138
g1024
sI140
(dp1028
sI78
g849
ssI140
(dp1029
I201
(dp1030
sI139
g1028
sI141
(dp1031
sI79
g853
ssI141
(dp1032
I80
g856
sI202
(dp1033
sI140
g1031
sI142
(dp1034
ssI142
(dp1035
I81
g859
sI203
(dp1036
sI141
g1034
sI143
(dp1037
ssI143
(dp1038
I144
(dp1039
sI82
g862
sI204
(dp1040
sI142
g1037
ssI144
(dp1041
I145
(dp1042
sI83
g864
sI205
(dp1043
sI143
g1039
ssI145
(dp1044
I144
g1042
sI146
(dp1045
sI84
g867
sI206
(dp1046
ssI146
(dp1047
I145
g1045
sI147
(dp1048
sI85
g870
sI207
(dp1049
ssI147
(dp1050
I208
(dp1051
sI146
g1048
sI148
(dp1052
sI86
g873
ssI148
(dp1053
I209
(dp1054
sI147
g1052
sI149
(dp1055
sI87
g877
ssI149
(dp1056
I88
g880
sI210
(dp1057
sI148
g1055
sI150
(dp1058
ssI150
(dp1059
I89
g883
sI211
(dp1060
sI149
g1058
sI151
(dp1061
ssI151
(dp1062
I90
g885
sI212
(dp1063
sI150
g1061
ssI153
(dp1064
I154
(dp1065
sI92
g887
sI214
(dp1066
ssI154
(dp1067
I153
g1065
sI155
(dp1068
sI93
g890
sI215
(dp1069
ssI155
(dp1070
I216
(dp1071
sI154
g1068
sI156
(dp1072
sI94
g893
ssI156
(dp1073
I217
(dp1074
sI155
g1072
sI157
(dp1075
sI95
g897
ssI157
(dp1076
I96
g900
sI218
(dp1077
sI156
g1075
sI158
(dp1078
ssI158
(dp1079
I97
g903
sI219
(dp1080
sI157
g1078
sI159
(dp1081
ssI159
(dp1082
I160
(dp1083
sI98
g906
sI220
(dp1084
sI158
g1081
ssI160
(dp1085
I161
(dp1086
sI99
g908
sI221
(dp1087
sI159
g1083
ssI161
(dp1088
I160
g1086
sI162
(dp1089
sI100
g911
sI222
(dp1090
ssI162
(dp1091
I161
g1089
sI163
(dp1092
sI101
g914
sI223
(dp1093
ssI163
(dp1094
I224
(dp1095
sI162
g1092
sI164
(dp1096
sI102
g917
ssI164
(dp1097
I225
(dp1098
sI163
g1096
sI165
(dp1099
sI103
g921
ssI165
(dp1100
I104
g924
sI226
(dp1101
sI164
g1099
sI166
(dp1102
ssI166
(dp1103
I105
g927
sI227
(dp1104
sI165
g1102
sI167
(dp1105
ssI167
(dp1106
I168
(dp1107
sI106
g930
sI228
(dp1108
sI166
g1105
ssI168
(dp1109
I169
(dp1110
sI107
g932
sI229
(dp1111
sI167
g1107
ssI169
(dp1112
I168
g1110
sI170
(dp1113
sI108
g935
sI230
(dp1114
ssI170
(dp1115
I169
g1113
sI171
(dp1116
sI109
g938
sI231
(dp1117
ssI171
(dp1118
I232
(dp1119
sI170
g1116
sI172
(dp1120
sI110
g941
ssI172
(dp1121
I233
(dp1122
sI171
g1120
sI173
(dp1123
sI111
g945
ssI173
(dp1124
I112
g948
sI234
(dp1125
sI172
g1123
sI174
(dp1126
ssI174
(dp1127
I113
g951
sI235
(dp1128
sI173
g1126
sI175
(dp1129
ssI175
(dp1130
I176
(dp1131
sI114
g954
sI236
(dp1132
sI174
g1129
ssI176
(dp1133
I177
(dp1134
sI115
g956
sI237
(dp1135
sI175
g1131
ssI177
(dp1136
I176
g1134
sI178
(dp1137
sI116
g959
sI238
(dp1138
ssI178
(dp1139
I177
g1137
sI179
(dp1140
sI117
g962
sI239
(dp1141
ssI179
(dp1142
I240
(dp1143
sI178
g1140
sI180
(dp1144
sI118
g965
ssI180
(dp1145
I241
(dp1146
sI179
g1144
sI181
(dp1147
sI119
g969
ssI181
(dp1148
I120
g972
sI242
(dp1149
sI180
g1147
sI182
(dp1150
ssI182
(dp1151
I121
g974
sI243
(dp1152
sI181
g1150
ssI183
(dp1153
I184
(dp1154
sI122
g977
sI244
(dp1155
ssI184
(dp1156
I185
(dp1157
sI123
g979
sI245
(dp1158
sI183
g1154
ssI185
(dp1159
I184
g1157
sI186
(dp1160
sI124
g982
sI246
(dp1161
ssI186
(dp1162
I185
g1160
sI187
(dp1163
sI125
g985
sI247
(dp1164
ssI187
(dp1165
I248
(dp1166
sI186
g1163
sI188
(dp1167
sI126
g988
ssI188
(dp1168
I249
(dp1169
sI187
g1167
sI189
(dp1170
sI127
g992
ssI189
(dp1171
I128
g995
sI250
(dp1172
sI188
g1170
sI190
(dp1173
ssI190
(dp1174
I129
g998
sI251
(dp1175
sI189
g1173
sI191
(dp1176
ssI191
(dp1177
I192
(dp1178
sI130
g1001
sI252
(dp1179
sI190
g1176
ssI192
(dp1180
I193
(dp1181
sI131
g1003
sI253
(dp1182
sI191
g1178
ssI193
(dp1183
I192
g1181
sI194
(dp1184
sI132
g1006
sI254
(dp1185
ssI194
(dp1186
I193
g1184
sI195
(dp1187
sI133
g1009
sI255
(dp1188
ssI195
(dp1189
I256
(dp1190
sI194
g1187
sI196
(dp1191
sI134
g1012
ssI196
(dp1192
I257
(dp1193
sI195
g1191
sI197
(dp1194
sI135
g1016
ssI197
(dp1195
I136
g1019
sI258
(dp1196
sI196
g1194
sI198
(dp1197
ssI198
(dp1198
I137
g1022
sI259
(dp1199
sI197
g1197
sI199
(dp1200
ssI199
(dp1201
I200
(dp1202
sI138
g1025
sI260
(dp1203
sI198
g1200
ssI200
(dp1204
I201
(dp1205
sI139
g1027
sI261
(dp1206
sI199
g1202
ssI201
(dp1207
I200
g1205
sI202
(dp1208
sI140
g1030
sI262
(dp1209
ssI202
(dp1210
I201
g1208
sI203
(dp1211
sI141
g1033
sI263
(dp1212
ssI203
(dp1213
I264
(dp1214
sI202
g1211
sI204
(dp1215
sI142
g1036
ssI204
(dp1216
I265
(dp1217
sI203
g1215
sI205
(dp1218
sI143
g1040
ssI205
(dp1219
I144
g1043
sI266
(dp1220
sI204
g1218
sI206
(dp1221
ssI206
(dp1222
I145
g1046
sI267
(dp1223
sI205
g1221
sI207
(dp1224
ssI207
(dp1225
I208
(dp1226
sI146
g1049
sI268
(dp1227
sI206
g1224
ssI208
(dp1228
I209
(dp1229
sI147
g1051
sI269
(dp1230
sI207
g1226
ssI209
(dp1231
I208
g1229
sI210
(dp1232
sI148
g1054
sI270
(dp1233
ssI210
(dp1234
I209
g1232
sI211
(dp1235
sI149
g1057
sI271
(dp1236
ssI211
(dp1237
I272
(dp1238
sI210
g1235
sI212
(dp1239
sI150
g1060
ssI212
(dp1240
I273
(dp1241
sI211
g1239
sI151
g1063
ssI214
(dp1242
I153
g1066
sI275
(dp1243
sI215
(dp1244
ssI215
(dp1245
I216
(dp1246
sI154
g1069
sI276
(dp1247
sI214
g1244
ssI216
(dp1248
I217
(dp1249
sI155
g1071
sI277
(dp1250
sI215
g1246
ssI217
(dp1251
I216
g1249
sI218
(dp1252
sI156
g1074
sI278
(dp1253
ssI218
(dp1254
I217
g1252
sI219
(dp1255
sI157
g1077
sI279
(dp1256
ssI219
(dp1257
I280
(dp1258
sI218
g1255
sI220
(dp1259
sI158
g1080
ssI220
(dp1260
I281
(dp1261
sI219
g1259
sI221
(dp1262
sI159
g1084
ssI221
(dp1263
I160
g1087
sI282
(dp1264
sI220
g1262
sI222
(dp1265
ssI222
(dp1266
I161
g1090
sI283
(dp1267
sI221
g1265
sI223
(dp1268
ssI223
(dp1269
I224
(dp1270
sI162
g1093
sI284
(dp1271
sI222
g1268
ssI224
(dp1272
I225
(dp1273
sI163
g1095
sI285
(dp1274
sI223
g1270
ssI225
(dp1275
I224
g1273
sI226
(dp1276
sI164
g1098
sI286
(dp1277
ssI226
(dp1278
I225
g1276
sI227
(dp1279
sI165
g1101
sI287
(dp1280
ssI227
(dp1281
I288
(dp1282
sI226
g1279
sI228
(dp1283
sI166
g1104
ssI228
(dp1284
I289
(dp1285
sI227
g1283
sI229
(dp1286
sI167
g1108
ssI229
(dp1287
I168
g1111
sI290
(dp1288
sI228
g1286
sI230
(dp1289
ssI230
(dp1290
I169
g1114
sI291
(dp1291
sI229
g1289
sI231
(dp1292
ssI231
(dp1293
I232
(dp1294
sI170
g1117
sI292
(dp1295
sI230
g1292
ssI232
(dp1296
I233
(dp1297
sI171
g1119
sI293
(dp1298
sI231
g1294
ssI233
(dp1299
I232
g1297
sI234
(dp1300
sI172
g1122
sI294
(dp1301
ssI234
(dp1302
I233
g1300
sI235
(dp1303
sI173
g1125
sI295
(dp1304
ssI235
(dp1305
I296
(dp1306
sI234
g1303
sI236
(dp1307
sI174
g1128
ssI236
(dp1308
I297
(dp1309
sI235
g1307
sI237
(dp1310
sI175
g1132
ssI237
(dp1311
I176
g1135
sI298
(dp1312
sI236
g1310
sI238
(dp1313
ssI238
(dp1314
I177
g1138
sI299
(dp1315
sI237
g1313
sI239
(dp1316
ssI239
(dp1317
I240
(dp1318
sI178
g1141
sI300
(dp1319
sI238
g1316
ssI240
(dp1320
I241
(dp1321
sI179
g1143
sI301
(dp1322
sI239
g1318
ssI241
(dp1323
I240
g1321
sI242
(dp1324
sI180
g1146
sI302
(dp1325
ssI242
(dp1326
I241
g1324
sI243
(dp1327
sI181
g1149
sI303
(dp1328
ssI243
(dp1329
I304
(dp1330
sI242
g1327
sI182
g1152
ssI244
(dp1331
I305
(dp1332
sI245
(dp1333
sI183
g1155
ssI245
(dp1334
I184
g1158
sI306
(dp1335
sI244
g1333
sI246
(dp1336
ssI246
(dp1337
I185
g1161
sI307
(dp1338
sI245
g1336
sI247
(dp1339
ssI247
(dp1340
I248
(dp1341
sI186
g1164
sI308
(dp1342
sI246
g1339
ssI248
(dp1343
I249
(dp1344
sI187
g1166
sI309
(dp1345
sI247
g1341
ssI249
(dp1346
I248
g1344
sI250
(dp1347
sI188
g1169
sI310
(dp1348
ssI250
(dp1349
I249
g1347
sI251
(dp1350
sI189
g1172
sI311
(dp1351
ssI251
(dp1352
I312
(dp1353
sI250
g1350
sI252
(dp1354
sI190
g1175
ssI252
(dp1355
I313
(dp1356
sI251
g1354
sI253
(dp1357
sI191
g1179
ssI253
(dp1358
I192
g1182
sI314
(dp1359
sI252
g1357
sI254
(dp1360
ssI254
(dp1361
I193
g1185
sI315
(dp1362
sI253
g1360
sI255
(dp1363
ssI255
(dp1364
I256
(dp1365
sI194
g1188
sI316
(dp1366
sI254
g1363
ssI256
(dp1367
I257
(dp1368
sI195
g1190
sI317
(dp1369
sI255
g1365
ssI257
(dp1370
I256
g1368
sI258
(dp1371
sI196
g1193
sI318
(dp1372
ssI258
(dp1373
I257
g1371
sI259
(dp1374
sI197
g1196
sI319
(dp1375
ssI259
(dp1376
I320
(dp1377
sI258
g1374
sI260
(dp1378
sI198
g1199
ssI260
(dp1379
I321
(dp1380
sI259
g1378
sI261
(dp1381
sI199
g1203
ssI261
(dp1382
I200
g1206
sI322
(dp1383
sI260
g1381
sI262
(dp1384
ssI262
(dp1385
I201
g1209
sI323
(dp1386
sI261
g1384
sI263
(dp1387
ssI263
(dp1388
I264
(dp1389
sI202
g1212
sI324
(dp1390
sI262
g1387
ssI264
(dp1391
I265
(dp1392
sI203
g1214
sI325
(dp1393
sI263
g1389
ssI265
(dp1394
I264
g1392
sI266
(dp1395
sI204
g1217
sI326
(dp1396
ssI266
(dp1397
I265
g1395
sI267
(dp1398
sI205
g1220
sI327
(dp1399
ssI267
(dp1400
I328
(dp1401
sI266
g1398
sI268
(dp1402
sI206
g1223
ssI268
(dp1403
I329
(dp1404
sI267
g1402
sI269
(dp1405
sI207
g1227
ssI269
(dp1406
I208
g1230
sI330
(dp1407
sI268
g1405
sI270
(dp1408
ssI270
(dp1409
I209
g1233
sI331
(dp1410
sI269
g1408
sI271
(dp1411
ssI271
(dp1412
I272
(dp1413
sI210
g1236
sI332
(dp1414
sI270
g1411
ssI272
(dp1415
I273
(dp1416
sI211
g1238
sI333
(dp1417
sI271
g1413
ssI273
(dp1418
I272
g1416
sI274
(dp1419
sI212
g1241
sI334
(dp1420
ssI274
(dp1421
I273
g1419
sI275
(dp1422
sI335
(dp1423
ssI275
(dp1424
I336
(dp1425
sI274
g1422
sI276
(dp1426
sI214
g1243
ssI276
(dp1427
I337
(dp1428
sI275
g1426
sI277
(dp1429
sI215
g1247
ssI277
(dp1430
I216
g1250
sI338
(dp1431
sI276
g1429
sI278
(dp1432
ssI278
(dp1433
I217
g1253
sI339
(dp1434
sI277
g1432
sI279
(dp1435
ssI279
(dp1436
I280
(dp1437
sI218
g1256
sI340
(dp1438
sI278
g1435
ssI280
(dp1439
I281
(dp1440
sI219
g1258
sI341
(dp1441
sI279
g1437
ssI281
(dp1442
I280
g1440
sI282
(dp1443
sI220
g1261
sI342
(dp1444
ssI282
(dp1445
I281
g1443
sI283
(dp1446
sI221
g1264
sI343
(dp1447
ssI283
(dp1448
I344
(dp1449
sI282
g1446
sI284
(dp1450
sI222
g1267
ssI284
(dp1451
I345
(dp1452
sI283
g1450
sI285
(dp1453
sI223
g1271
ssI285
(dp1454
I224
g1274
sI346
(dp1455
sI284
g1453
sI286
(dp1456
ssI286
(dp1457
I225
g1277
sI347
(dp1458
sI285
g1456
sI287
(dp1459
ssI287
(dp1460
I288
(dp1461
sI226
g1280
sI348
(dp1462
sI286
g1459
ssI288
(dp1463
I289
(dp1464
sI227
g1282
sI349
(dp1465
sI287
g1461
ssI289
(dp1466
I288
g1464
sI290
(dp1467
sI228
g1285
sI350
(dp1468
ssI290
(dp1469
I289
g1467
sI291
(dp1470
sI229
g1288
sI351
(dp1471
ssI291
(dp1472
I352
(dp1473
sI290
g1470
sI292
(dp1474
sI230
g1291
ssI292
(dp1475
I353
(dp1476
sI291
g1474
sI293
(dp1477
sI231
g1295
ssI293
(dp1478
I232
g1298
sI354
(dp1479
sI292
g1477
sI294
(dp1480
ssI294
(dp1481
I233
g1301
sI355
(dp1482
sI293
g1480
sI295
(dp1483
ssI295
(dp1484
I296
(dp1485
sI234
g1304
sI356
(dp1486
sI294
g1483
ssI296
(dp1487
I297
(dp1488
sI235
g1306
sI357
(dp1489
sI295
g1485
ssI297
(dp1490
I296
g1488
sI298
(dp1491
sI236
g1309
sI358
(dp1492
ssI298
(dp1493
I297
g1491
sI299
(dp1494
sI237
g1312
sI359
(dp1495
ssI299
(dp1496
I360
(dp1497
sI298
g1494
sI300
(dp1498
sI238
g1315
ssI300
(dp1499
I361
(dp1500
sI299
g1498
sI301
(dp1501
sI239
g1319
ssI301
(dp1502
I240
g1322
sI362
(dp1503
sI300
g1501
sI302
(dp1504
ssI302
(dp1505
I241
g1325
sI363
(dp1506
sI301
g1504
sI303
(dp1507
ssI303
(dp1508
I304
(dp1509
sI242
g1328
sI364
(dp1510
sI302
g1507
ssI304
(dp1511
I243
g1330
sI365
(dp1512
sI303
g1509
ssI305
(dp1513
I306
(dp1514
sI244
g1332
sI366
(dp1515
ssI306
(dp1516
I305
g1514
sI307
(dp1517
sI245
g1335
sI367
(dp1518
ssI307
(dp1519
I368
(dp1520
sI306
g1517
sI308
(dp1521
sI246
g1338
ssI308
(dp1522
I369
(dp1523
sI307
g1521
sI309
(dp1524
sI247
g1342
ssI309
(dp1525
I248
g1345
sI370
(dp1526
sI308
g1524
sI310
(dp1527
ssI310
(dp1528
I249
g1348
sI371
(dp1529
sI309
g1527
sI311
(dp1530
ssI311
(dp1531
I312
(dp1532
sI250
g1351
sI372
(dp1533
sI310
g1530
ssI312
(dp1534
I313
(dp1535
sI251
g1353
sI373
(dp1536
sI311
g1532
ssI313
(dp1537
I312
g1535
sI314
(dp1538
sI252
g1356
sI374
(dp1539
ssI314
(dp1540
I313
g1538
sI315
(dp1541
sI253
g1359
sI375
(dp1542
ssI315
(dp1543
I376
(dp1544
sI314
g1541
sI316
(dp1545
sI254
g1362
ssI316
(dp1546
I377
(dp1547
sI315
g1545
sI317
(dp1548
sI255
g1366
ssI317
(dp1549
I256
g1369
sI378
(dp1550
sI316
g1548
sI318
(dp1551
ssI318
(dp1552
I257
g1372
sI379
(dp1553
sI317
g1551
sI319
(dp1554
ssI319
(dp1555
I320
(dp1556
sI258
g1375
sI380
(dp1557
sI318
g1554
ssI320
(dp1558
I321
(dp1559
sI259
g1377
sI381
(dp1560
sI319
g1556
ssI321
(dp1561
I320
g1559
sI322
(dp1562
sI260
g1380
sI382
(dp1563
ssI322
(dp1564
I321
g1562
sI323
(dp1565
sI261
g1383
sI383
(dp1566
ssI323
(dp1567
I384
(dp1568
sI322
g1565
sI324
(dp1569
sI262
g1386
ssI324
(dp1570
I385
(dp1571
sI323
g1569
sI325
(dp1572
sI263
g1390
ssI325
(dp1573
I264
g1393
sI386
(dp1574
sI324
g1572
sI326
(dp1575
ssI326
(dp1576
I265
g1396
sI387
(dp1577
sI325
g1575
sI327
(dp1578
ssI327
(dp1579
I328
(dp1580
sI266
g1399
sI388
(dp1581
sI326
g1578
ssI328
(dp1582
I329
(dp1583
sI267
g1401
sI389
(dp1584
sI327
g1580
ssI329
(dp1585
I328
g1583
sI330
(dp1586
sI268
g1404
sI390
(dp1587
ssI330
(dp1588
I329
g1586
sI331
(dp1589
sI269
g1407
sI391
(dp1590
ssI331
(dp1591
I392
(dp1592
sI330
g1589
sI332
(dp1593
sI270
g1410
ssI332
(dp1594
I393
(dp1595
sI331
g1593
sI333
(dp1596
sI271
g1414
ssI333
(dp1597
I272
g1417
sI394
(dp1598
sI332
g1596
sI334
(dp1599
ssI334
(dp1600
I273
g1420
sI395
(dp1601
sI333
g1599
sI335
(dp1602
ssI335
(dp1603
I336
(dp1604
sI274
g1423
sI334
g1602
ssI336
(dp1605
I337
(dp1606
sI275
g1425
sI397
(dp1607
sI335
g1604
ssI337
(dp1608
I336
g1606
sI338
(dp1609
sI276
g1428
sI398
(dp1610
ssI338
(dp1611
I337
g1609
sI339
(dp1612
sI277
g1431
sI399
(dp1613
ssI339
(dp1614
I400
(dp1615
sI338
g1612
sI340
(dp1616
sI278
g1434
ssI340
(dp1617
I401
(dp1618
sI339
g1616
sI341
(dp1619
sI279
g1438
ssI341
(dp1620
I280
g1441
sI402
(dp1621
sI340
g1619
sI342
(dp1622
ssI342
(dp1623
I281
g1444
sI403
(dp1624
sI341
g1622
sI343
(dp1625
ssI343
(dp1626
I344
(dp1627
sI282
g1447
sI404
(dp1628
sI342
g1625
ssI344
(dp1629
I345
(dp1630
sI283
g1449
sI405
(dp1631
sI343
g1627
ssI345
(dp1632
I344
g1630
sI346
(dp1633
sI284
g1452
sI406
(dp1634
ssI346
(dp1635
I345
g1633
sI347
(dp1636
sI285
g1455
sI407
(dp1637
ssI347
(dp1638
I408
(dp1639
sI346
g1636
sI348
(dp1640
sI286
g1458
ssI348
(dp1641
I409
(dp1642
sI347
g1640
sI349
(dp1643
sI287
g1462
ssI349
(dp1644
I288
g1465
sI410
(dp1645
sI348
g1643
sI350
(dp1646
ssI350
(dp1647
I289
g1468
sI411
(dp1648
sI349
g1646
sI351
(dp1649
ssI351
(dp1650
I352
(dp1651
sI290
g1471
sI412
(dp1652
sI350
g1649
ssI352
(dp1653
I353
(dp1654
sI291
g1473
sI413
(dp1655
sI351
g1651
ssI353
(dp1656
I352
g1654
sI354
(dp1657
sI292
g1476
sI414
(dp1658
ssI354
(dp1659
I353
g1657
sI355
(dp1660
sI293
g1479
sI415
(dp1661
ssI355
(dp1662
I416
(dp1663
sI354
g1660
sI356
(dp1664
sI294
g1482
ssI356
(dp1665
I417
(dp1666
sI355
g1664
sI357
(dp1667
sI295
g1486
ssI357
(dp1668
I296
g1489
sI418
(dp1669
sI356
g1667
sI358
(dp1670
ssI358
(dp1671
I297
g1492
sI419
(dp1672
sI357
g1670
sI359
(dp1673
ssI359
(dp1674
I360
(dp1675
sI298
g1495
sI420
(dp1676
sI358
g1673
ssI360
(dp1677
I361
(dp1678
sI299
g1497
sI421
(dp1679
sI359
g1675
ssI361
(dp1680
I360
g1678
sI362
(dp1681
sI300
g1500
sI422
(dp1682
ssI362
(dp1683
I361
g1681
sI363
(dp1684
sI301
g1503
sI423
(dp1685
ssI363
(dp1686
I424
(dp1687
sI362
g1684
sI364
(dp1688
sI302
g1506
ssI364
(dp1689
I425
(dp1690
sI363
g1688
sI365
(dp1691
sI303
g1510
ssI365
(dp1692
I304
g1512
sI426
(dp1693
sI364
g1691
ssI366
(dp1694
I305
g1515
sI427
(dp1695
sI367
(dp1696
ssI367
(dp1697
I368
(dp1698
sI306
g1518
sI428
(dp1699
sI366
g1696
ssI368
(dp1700
I369
(dp1701
sI307
g1520
sI429
(dp1702
sI367
g1698
ssI369
(dp1703
I368
g1701
sI370
(dp1704
sI308
g1523
sI430
(dp1705
ssI370
(dp1706
I369
g1704
sI371
(dp1707
sI309
g1526
sI431
(dp1708
ssI371
(dp1709
I432
(dp1710
sI370
g1707
sI372
(dp1711
sI310
g1529
ssI372
(dp1712
I433
(dp1713
sI371
g1711
sI373
(dp1714
sI311
g1533
ssI373
(dp1715
I312
g1536
sI434
(dp1716
sI372
g1714
sI374
(dp1717
ssI374
(dp1718
I313
g1539
sI435
(dp1719
sI373
g1717
sI375
(dp1720
ssI375
(dp1721
I376
(dp1722
sI314
g1542
sI436
(dp1723
sI374
g1720
ssI376
(dp1724
I377
(dp1725
sI315
g1544
sI437
(dp1726
sI375
g1722
ssI377
(dp1727
I376
g1725
sI378
(dp1728
sI316
g1547
sI438
(dp1729
ssI378
(dp1730
I377
g1728
sI379
(dp1731
sI317
g1550
sI439
(dp1732
ssI379
(dp1733
I440
(dp1734
sI378
g1731
sI380
(dp1735
sI318
g1553
ssI380
(dp1736
I441
(dp1737
sI379
g1735
sI381
(dp1738
sI319
g1557
ssI381
(dp1739
I320
g1560
sI442
(dp1740
sI380
g1738
sI382
(dp1741
ssI382
(dp1742
I321
g1563
sI443
(dp1743
sI381
g1741
sI383
(dp1744
ssI383
(dp1745
I384
(dp1746
sI322
g1566
sI444
(dp1747
sI382
g1744
ssI384
(dp1748
I385
(dp1749
sI323
g1568
sI445
(dp1750
sI383
g1746
ssI385
(dp1751
I384
g1749
sI386
(dp1752
sI324
g1571
sI446
(dp1753
ssI386
(dp1754
I385
g1752
sI387
(dp1755
sI325
g1574
sI447
(dp1756
ssI387
(dp1757
I448
(dp1758
sI386
g1755
sI388
(dp1759
sI326
g1577
ssI388
(dp1760
I449
(dp1761
sI387
g1759
sI389
(dp1762
sI327
g1581
ssI389
(dp1763
I328
g1584
sI450
(dp1764
sI388
g1762
sI390
(dp1765
ssI390
(dp1766
I329
g1587
sI451
(dp1767
sI389
g1765
sI391
(dp1768
ssI391
(dp1769
I392
(dp1770
sI330
g1590
sI452
(dp1771
sI390
g1768
ssI392
(dp1772
I393
(dp1773
sI331
g1592
sI453
(dp1774
sI391
g1770
ssI393
(dp1775
I392
g1773
sI394
(dp1776
sI332
g1595
sI454
(dp1777
ssI394
(dp1778
I393
g1776
sI395
(dp1779
sI333
g1598
sI455
(dp1780
ssI395
(dp1781
I456
(dp1782
sI394
g1779
sI334
g1601
ssI397
(dp1783
I336
g1607
sI458
(dp1784
sI398
(dp1785
ssI398
(dp1786
I337
g1610
sI459
(dp1787
sI397
g1785
sI399
(dp1788
ssI399
(dp1789
I400
(dp1790
sI338
g1613
sI460
(dp1791
sI398
g1788
ssI400
(dp1792
I401
(dp1793
sI339
g1615
sI461
(dp1794
sI399
g1790
ssI401
(dp1795
I400
g1793
sI402
(dp1796
sI340
g1618
sI462
(dp1797
ssI402
(dp1798
I401
g1796
sI403
(dp1799
sI341
g1621
sI463
(dp1800
ssI403
(dp1801
I464
(dp1802
sI402
g1799
sI404
(dp1803
sI342
g1624
ssI404
(dp1804
I465
(dp1805
sI403
g1803
sI405
(dp1806
sI343
g1628
ssI405
(dp1807
I344
g1631
sI466
(dp1808
sI404
g1806
sI406
(dp1809
ssI406
(dp1810
I345
g1634
sI467
(dp1811
sI405
g1809
sI407
(dp1812
ssI407
(dp1813
I408
(dp1814
sI346
g1637
sI468
(dp1815
sI406
g1812
ssI408
(dp1816
I409
(dp1817
sI347
g1639
sI469
(dp1818
sI407
g1814
ssI409
(dp1819
I408
g1817
sI410
(dp1820
sI348
g1642
sI470
(dp1821
ssI410
(dp1822
I409
g1820
sI411
(dp1823
sI349
g1645
sI471
(dp1824
ssI411
(dp1825
I472
(dp1826
sI410
g1823
sI412
(dp1827
sI350
g1648
ssI412
(dp1828
I473
(dp1829
sI411
g1827
sI413
(dp1830
sI351
g1652
ssI413
(dp1831
I352
g1655
sI474
(dp1832
sI412
g1830
sI414
(dp1833
ssI414
(dp1834
I353
g1658
sI475
(dp1835
sI413
g1833
sI415
(dp1836
ssI415
(dp1837
I416
(dp1838
sI354
g1661
sI476
(dp1839
sI414
g1836
ssI416
(dp1840
I417
(dp1841
sI355
g1663
sI477
(dp1842
sI415
g1838
ssI417
(dp1843
I416
g1841
sI418
(dp1844
sI356
g1666
sI478
(dp1845
ssI418
(dp1846
I417
g1844
sI419
(dp1847
sI357
g1669
sI479
(dp1848
ssI419
(dp1849
I480
(dp1850
sI418
g1847
sI420
(dp1851
sI358
g1672
ssI420
(dp1852
I481
(dp1853
sI419
g1851
sI421
(dp1854
sI359
g1676
ssI421
(dp1855
I360
g1679
sI482
(dp1856
sI420
g1854
sI422
(dp1857
ssI422
(dp1858
I361
g1682
sI483
(dp1859
sI421
g1857
sI423
(dp1860
ssI423
(dp1861
I424
(dp1862
sI362
g1685
sI484
(dp1863
sI422
g1860
ssI424
(dp1864
I425
(dp1865
sI363
g1687
sI485
(dp1866
sI423
g1862
ssI425
(dp1867
I424
g1865
sI426
(dp1868
sI364
g1690
sI486
(dp1869
ssI426
(dp1870
I425
g1868
sI365
g1693
sI487
(dp1871
ssI427
(dp1872
I488
(dp1873
sI428
(dp1874
sI366
g1695
ssI428
(dp1875
I489
(dp1876
sI427
g1874
sI429
(dp1877
sI367
g1699
ssI429
(dp1878
I368
g1702
sI490
(dp1879
sI428
g1877
sI430
(dp1880
ssI430
(dp1881
I369
g1705
sI491
(dp1882
sI429
g1880
sI431
(dp1883
ssI431
(dp1884
I432
(dp1885
sI370
g1708
sI492
(dp1886
sI430
g1883
ssI432
(dp1887
I433
(dp1888
sI371
g1710
sI493
(dp1889
sI431
g1885
ssI433
(dp1890
I432
g1888
sI434
(dp1891
sI372
g1713
sI494
(dp1892
ssI434
(dp1893
I433
g1891
sI435
(dp1894
sI373
g1716
sI495
(dp1895
ssI435
(dp1896
I496
(dp1897
sI434
g1894
sI436
(dp1898
sI374
g1719
ssI436
(dp1899
I497
(dp1900
sI435
g1898
sI437
(dp1901
sI375
g1723
ssI437
(dp1902
I376
g1726
sI498
(dp1903
sI436
g1901
sI438
(dp1904
ssI438
(dp1905
I377
g1729
sI499
(dp1906
sI437
g1904
sI439
(dp1907
ssI439
(dp1908
I440
(dp1909
sI378
g1732
sI500
(dp1910
sI438
g1907
ssI440
(dp1911
I441
(dp1912
sI379
g1734
sI501
(dp1913
sI439
g1909
ssI441
(dp1914
I440
g1912
sI442
(dp1915
sI380
g1737
sI502
(dp1916
ssI442
(dp1917
I441
g1915
sI443
(dp1918
sI381
g1740
sI503
(dp1919
ssI443
(dp1920
I504
(dp1921
sI442
g1918
sI444
(dp1922
sI382
g1743
ssI444
(dp1923
I505
(dp1924
sI443
g1922
sI445
(dp1925
sI383
g1747
ssI445
(dp1926
I384
g1750
sI506
(dp1927
sI444
g1925
sI446
(dp1928
ssI446
(dp1929
I385
g1753
sI507
(dp1930
sI445
g1928
sI447
(dp1931
ssI447
(dp1932
I448
(dp1933
sI386
g1756
sI508
(dp1934
sI446
g1931
ssI448
(dp1935
I449
(dp1936
sI387
g1758
sI509
(dp1937
sI447
g1933
ssI449
(dp1938
I448
g1936
sI450
(dp1939
sI388
g1761
sI510
(dp1940
ssI450
(dp1941
I449
g1939
sI451
(dp1942
sI389
g1764
sI511
(dp1943
ssI451
(dp1944
I512
(dp1945
sI450
g1942
sI452
(dp1946
sI390
g1767
ssI452
(dp1947
I513
(dp1948
sI451
g1946
sI453
(dp1949
sI391
g1771
ssI453
(dp1950
I392
g1774
sI514
(dp1951
sI452
g1949
sI454
(dp1952
ssI454
(dp1953
I393
g1777
sI515
(dp1954
sI453
g1952
sI455
(dp1955
ssI455
(dp1956
I456
(dp1957
sI394
g1780
sI516
(dp1958
sI454
g1955
ssI456
(dp1959
I395
g1782
sI517
(dp1960
sI455
g1957
ssI458
(dp1961
I459
(dp1962
sI397
g1784
sI519
(dp1963
ssI459
(dp1964
I520
(dp1965
sI458
g1962
sI460
(dp1966
sI398
g1787
ssI460
(dp1967
I521
(dp1968
sI459
g1966
sI461
(dp1969
sI399
g1791
ssI461
(dp1970
I400
g1794
sI522
(dp1971
sI460
g1969
sI462
(dp1972
ssI462
(dp1973
I401
g1797
sI523
(dp1974
sI461
g1972
sI463
(dp1975
ssI463
(dp1976
I464
(dp1977
sI402
g1800
sI524
(dp1978
sI462
g1975
ssI464
(dp1979
I465
(dp1980
sI403
g1802
sI525
(dp1981
sI463
g1977
ssI465
(dp1982
I464
g1980
sI466
(dp1983
sI404
g1805
sI526
(dp1984
ssI466
(dp1985
I465
g1983
sI467
(dp1986
sI405
g1808
sI527
(dp1987
ssI467
(dp1988
I528
(dp1989
sI466
g1986
sI468
(dp1990
sI406
g1811
ssI468
(dp1991
I529
(dp1992
sI467
g1990
sI469
(dp1993
sI407
g1815
ssI469
(dp1994
I408
g1818
sI530
(dp1995
sI468
g1993
sI470
(dp1996
ssI470
(dp1997
I409
g1821
sI531
(dp1998
sI469
g1996
sI471
(dp1999
ssI471
(dp2000
I472
(dp2001
sI410
g1824
sI532
(dp2002
sI470
g1999
ssI472
(dp2003
I473
(dp2004
sI411
g1826
sI533
(dp2005
sI471
g2001
ssI473
(dp2006
I472
g2004
sI474
(dp2007
sI412
g1829
sI534
(dp2008
ssI474
(dp2009
I473
g2007
sI475
(dp2010
sI413
g1832
sI535
(dp2011
ssI475
(dp2012
I536
(dp2013
sI474
g2010
sI476
(dp2014
sI414
g1835
ssI476
(dp2015
I537
(dp2016
sI475
g2014
sI477
(dp2017
sI415
g1839
ssI477
(dp2018
I416
g1842
sI538
(dp2019
sI476
g2017
sI478
(dp2020
ssI478
(dp2021
I417
g1845
sI539
(dp2022
sI477
g2020
sI479
(dp2023
ssI479
(dp2024
I480
(dp2025
sI418
g1848
sI540
(dp2026
sI478
g2023
ssI480
(dp2027
I481
(dp2028
sI419
g1850
sI541
(dp2029
sI479
g2025
ssI481
(dp2030
I480
g2028
sI482
(dp2031
sI420
g1853
sI542
(dp2032
ssI482
(dp2033
I481
g2031
sI483
(dp2034
sI421
g1856
sI543
(dp2035
ssI483
(dp2036
I544
(dp2037
sI482
g2034
sI484
(dp2038
sI422
g1859
ssI484
(dp2039
I545
(dp2040
sI483
g2038
sI485
(dp2041
sI423
g1863
ssI485
(dp2042
I424
g1866
sI546
(dp2043
sI484
g2041
sI486
(dp2044
ssI486
(dp2045
I425
g1869
sI547
(dp2046
sI485
g2044
sI487
(dp2047
ssI487
(dp2048
I426
g1871
sI548
(dp2049
sI486
g2047
ssI488
(dp2050
I489
(dp2051
sI427
g1873
sI549
(dp2052
ssI489
(dp2053
I488
g2051
sI490
(dp2054
sI428
g1876
sI550
(dp2055
ssI490
(dp2056
I489
g2054
sI491
(dp2057
sI429
g1879
sI551
(dp2058
ssI491
(dp2059
I552
(dp2060
sI490
g2057
sI492
(dp2061
sI430
g1882
ssI492
(dp2062
I553
(dp2063
sI491
g2061
sI493
(dp2064
sI431
g1886
ssI493
(dp2065
I432
g1889
sI554
(dp2066
sI492
g2064
sI494
(dp2067
ssI494
(dp2068
I433
g1892
sI555
(dp2069
sI493
g2067
sI495
(dp2070
ssI495
(dp2071
I496
(dp2072
sI434
g1895
sI556
(dp2073
sI494
g2070
ssI496
(dp2074
I497
(dp2075
sI435
g1897
sI557
(dp2076
sI495
g2072
ssI497
(dp2077
I496
g2075
sI498
(dp2078
sI436
g1900
sI558
(dp2079
ssI498
(dp2080
I497
g2078
sI499
(dp2081
sI437
g1903
sI559
(dp2082
ssI499
(dp2083
I560
(dp2084
sI498
g2081
sI500
(dp2085
sI438
g1906
ssI500
(dp2086
I561
(dp2087
sI499
g2085
sI501
(dp2088
sI439
g1910
ssI501
(dp2089
I440
g1913
sI562
(dp2090
sI500
g2088
sI502
(dp2091
ssI502
(dp2092
I441
g1916
sI563
(dp2093
sI501
g2091
sI503
(dp2094
ssI503
(dp2095
I504
(dp2096
sI442
g1919
sI564
(dp2097
sI502
g2094
ssI504
(dp2098
I505
(dp2099
sI443
g1921
sI565
(dp2100
sI503
g2096
ssI505
(dp2101
I504
g2099
sI506
(dp2102
sI444
g1924
sI566
(dp2103
ssI506
(dp2104
I505
g2102
sI507
(dp2105
sI445
g1927
sI567
(dp2106
ssI507
(dp2107
I568
(dp2108
sI506
g2105
sI508
(dp2109
sI446
g1930
ssI508
(dp2110
I569
(dp2111
sI507
g2109
sI509
(dp2112
sI447
g1934
ssI509
(dp2113
I448
g1937
sI570
(dp2114
sI508
g2112
sI510
(dp2115
ssI510
(dp2116
I449
g1940
sI571
(dp2117
sI509
g2115
sI511
(dp2118
ssI511
(dp2119
I512
(dp2120
sI450
g1943
sI572
(dp2121
sI510
g2118
ssI512
(dp2122
I513
(dp2123
sI451
g1945
sI573
(dp2124
sI511
g2120
ssI513
(dp2125
I512
g2123
sI514
(dp2126
sI452
g1948
sI574
(dp2127
ssI514
(dp2128
I513
g2126
sI515
(dp2129
sI453
g1951
sI575
(dp2130
ssI515
(dp2131
I576
(dp2132
sI514
g2129
sI516
(dp2133
sI454
g1954
ssI516
(dp2134
I577
(dp2135
sI515
g2133
sI517
(dp2136
sI455
g1958
ssI517
(dp2137
I456
g1960
sI578
(dp2138
sI516
g2136
ssI519
(dp2139
I520
(dp2140
sI458
g1963
sI580
(dp2141
ssI520
(dp2142
I521
(dp2143
sI459
g1965
sI581
(dp2144
sI519
g2140
ssI521
(dp2145
I520
g2143
sI522
(dp2146
sI460
g1968
sI582
(dp2147
ssI522
(dp2148
I521
g2146
sI523
(dp2149
sI461
g1971
sI583
(dp2150
ssI523
(dp2151
I584
(dp2152
sI522
g2149
sI524
(dp2153
sI462
g1974
ssI524
(dp2154
I585
(dp2155
sI523
g2153
sI525
(dp2156
sI463
g1978
ssI525
(dp2157
I464
g1981
sI586
(dp2158
sI524
g2156
sI526
(dp2159
ssI526
(dp2160
I465
g1984
sI587
(dp2161
sI525
g2159
sI527
(dp2162
ssI527
(dp2163
I528
(dp2164
sI466
g1987
sI588
(dp2165
sI526
g2162
ssI528
(dp2166
I529
(dp2167
sI467
g1989
sI589
(dp2168
sI527
g2164
ssI529
(dp2169
I528
g2167
sI530
(dp2170
sI468
g1992
sI590
(dp2171
ssI530
(dp2172
I529
g2170
sI531
(dp2173
sI469
g1995
sI591
(dp2174
ssI531
(dp2175
I592
(dp2176
sI530
g2173
sI532
(dp2177
sI470
g1998
ssI532
(dp2178
I593
(dp2179
sI531
g2177
sI533
(dp2180
sI471
g2002
ssI533
(dp2181
I472
g2005
sI594
(dp2182
sI532
g2180
sI534
(dp2183
ssI534
(dp2184
I473
g2008
sI595
(dp2185
sI533
g2183
sI535
(dp2186
ssI535
(dp2187
I536
(dp2188
sI474
g2011
sI596
(dp2189
sI534
g2186
ssI536
(dp2190
I537
(dp2191
sI475
g2013
sI597
(dp2192
sI535
g2188
ssI537
(dp2193
I536
g2191
sI538
(dp2194
sI476
g2016
sI598
(dp2195
ssI538
(dp2196
I537
g2194
sI539
(dp2197
sI477
g2019
sI599
(dp2198
ssI539
(dp2199
I600
(dp2200
sI538
g2197
sI540
(dp2201
sI478
g2022
ssI540
(dp2202
I601
(dp2203
sI539
g2201
sI541
(dp2204
sI479
g2026
ssI541
(dp2205
I480
g2029
sI602
(dp2206
sI540
g2204
sI542
(dp2207
ssI542
(dp2208
I481
g2032
sI603
(dp2209
sI541
g2207
sI543
(dp2210
ssI543
(dp2211
I544
(dp2212
sI482
g2035
sI604
(dp2213
sI542
g2210
ssI544
(dp2214
I545
(dp2215
sI483
g2037
sI605
(dp2216
sI543
g2212
ssI545
(dp2217
I544
g2215
sI546
(dp2218
sI484
g2040
sI606
(dp2219
ssI546
(dp2220
I545
g2218
sI547
(dp2221
sI485
g2043
sI607
(dp2222
ssI547
(dp2223
I608
(dp2224
sI546
g2221
sI548
(dp2225
sI486
g2046
ssI548
(dp2226
I609
(dp2227
sI547
g2225
sI487
g2049
ssI549
(dp2228
I488
g2052
sI550
(dp2229
ssI550
(dp2230
I489
g2055
sI549
g2229
sI551
(dp2231
ssI551
(dp2232
I552
(dp2233
sI490
g2058
sI550
g2231
ssI552
(dp2234
I553
(dp2235
sI491
g2060
sI551
g2233
ssI553
(dp2236
I552
g2235
sI554
(dp2237
sI492
g2063
ssI554
(dp2238
I553
g2237
sI555
(dp2239
sI493
g2066
ssI555
(dp2240
I554
g2239
sI556
(dp2241
sI494
g2069
ssI556
(dp2242
I555
g2241
sI557
(dp2243
sI495
g2073
ssI557
(dp2244
I496
g2076
sI556
g2243
sI558
(dp2245
ssI558
(dp2246
I497
g2079
sI557
g2245
sI559
(dp2247
ssI559
(dp2248
I560
(dp2249
sI498
g2082
sI558
g2247
ssI560
(dp2250
I561
(dp2251
sI499
g2084
sI559
g2249
ssI561
(dp2252
I560
g2251
sI562
(dp2253
sI500
g2087
ssI562
(dp2254
I561
g2253
sI563
(dp2255
sI501
g2090
ssI563
(dp2256
I562
g2255
sI564
(dp2257
sI502
g2093
ssI564
(dp2258
I563
g2257
sI565
(dp2259
sI503
g2097
ssI565
(dp2260
I504
g2100
sI564
g2259
sI566
(dp2261
ssI566
(dp2262
I505
g2103
sI565
g2261
sI567
(dp2263
ssI567
(dp2264
I568
(dp2265
sI506
g2106
sI566
g2263
ssI568
(dp2266
I569
(dp2267
sI507
g2108
sI567
g2265
ssI569
(dp2268
I568
g2267
sI570
(dp2269
sI508
g2111
ssI570
(dp2270
I569
g2269
sI571
(dp2271
sI509
g2114
ssI571
(dp2272
I570
g2271
sI572
(dp2273
sI510
g2117
ssI572
(dp2274
I571
g2273
sI573
(dp2275
sI511
g2121
ssI573
(dp2276
I512
g2124
sI572
g2275
sI574
(dp2277
ssI574
(dp2278
I513
g2127
sI573
g2277
sI575
(dp2279
ssI575
(dp2280
I576
(dp2281
sI514
g2130
sI574
g2279
ssI576
(dp2282
I577
(dp2283
sI515
g2132
sI575
g2281
ssI577
(dp2284
I576
g2283
sI578
(dp2285
sI516
g2135
ssI578
(dp2286
I577
g2285
sI517
g2138
ssI580
(dp2287
I581
(dp2288
sI519
g2141
ssI581
(dp2289
I520
g2144
sI580
g2288
sI582
(dp2290
ssI582
(dp2291
I521
g2147
sI581
g2290
sI583
(dp2292
ssI583
(dp2293
I584
(dp2294
sI522
g2150
sI582
g2292
ssI584
(dp2295
I585
(dp2296
sI523
g2152
sI583
g2294
ssI585
(dp2297
I584
g2296
sI586
(dp2298
sI524
g2155
ssI586
(dp2299
I585
g2298
sI587
(dp2300
sI525
g2158
ssI587
(dp2301
I586
g2300
sI588
(dp2302
sI526
g2161
ssI588
(dp2303
I587
g2302
sI589
(dp2304
sI527
g2165
ssI589
(dp2305
I528
g2168
sI588
g2304
sI590
(dp2306
ssI590
(dp2307
I529
g2171
sI589
g2306
sI591
(dp2308
ssI591
(dp2309
I592
(dp2310
sI530
g2174
sI590
g2308
ssI592
(dp2311
I593
(dp2312
sI531
g2176
sI591
g2310
ssI593
(dp2313
I592
g2312
sI594
(dp2314
sI532
g2179
ssI594
(dp2315
I593
g2314
sI595
(dp2316
sI533
g2182
ssI595
(dp2317
I594
g2316
sI596
(dp2318
sI534
g2185
ssI596
(dp2319
I595
g2318
sI597
(dp2320
sI535
g2189
ssI597
(dp2321
I536
g2192
sI596
g2320
sI598
(dp2322
ssI598
(dp2323
I537
g2195
sI597
g2322
sI599
(dp2324
ssI599
(dp2325
I600
(dp2326
sI538
g2198
sI598
g2324
ssI600
(dp2327
I601
(dp2328
sI539
g2200
sI599
g2326
ssI601
(dp2329
I600
g2328
sI602
(dp2330
sI540
g2203
ssI602
(dp2331
I601
g2330
sI603
(dp2332
sI541
g2206
ssI603
(dp2333
I602
g2332
sI604
(dp2334
sI542
g2209
ssI604
(dp2335
I603
g2334
sI605
(dp2336
sI543
g2213
ssI605
(dp2337
I544
g2216
sI604
g2336
sI606
(dp2338
ssI606
(dp2339
I545
g2219
sI605
g2338
sI607
(dp2340
ssI607
(dp2341
I608
(dp2342
sI546
g2222
sI606
g2340
ssI608
(dp2343
I609
(dp2344
sI547
g2224
sI607
g2342
ssI609
(dp2345
I608
g2344
sI548
g2227
sssS'adjlist_outer_dict_factory'
p2346
g7
sb.