ccopy_reg
_reconstructor
p0
(cnetworkx.classes.graph
Graph
p1
c__builtin__
object
p2
Ntp3
Rp4
(dp5
S'adjlist_inner_dict_factory'
p6
c__builtin__
dict
p7
sS'node_dict_factory'
p8
g7
sS'edge_attr_dict_factory'
p9
g7
sS'_node'
p10
(dp11
I0
(dp12
sI1
(dp13
sI2
(dp14
sI3
(dp15
sI4
(dp16
sI5
(dp17
sI6
(dp18
sI7
(dp19
sI8
(dp20
sI9
(dp21
sI11
(dp22
sI12
(dp23
sI13
(dp24
sI14
(dp25
sI15
(dp26
sI16
(dp27
sI17
(dp28
sI18
(dp29
sI19
(dp30
sI20
(dp31
sI21
(dp32
sI22
(dp33
sI23
(dp34
sI24
(dp35
sI25
(dp36
sI26
(dp37
sI27
(dp38
sI28
(dp39
sI29
(dp40
sI30
(dp41
sI31
(dp42
sI32
(dp43
sI33
(dp44
sI34
(dp45
sI35
(dp46
sI36
(dp47
sI37
(dp48
sI38
(dp49
sI39
(dp50
sI40
(dp51
sI41
(dp52
sI42
(dp53
sI43
(dp54
sI44
(dp55
sI45
(dp56
sI46
(dp57
sI47
(dp58
sI48
(dp59
sI49
(dp60
sI50
(dp61
sI52
(dp62
sI53
(dp63
sI54
(dp64
sI55
(dp65
sI56
(dp66
sI57
(dp67
sI58
(dp68
sI59
(dp69
sI60
(dp70
sI61
(dp71
sI62
(dp72
sI63
(dp73
sI64
(dp74
sI65
(dp75
sI66
(dp76
sI67
(dp77
sI68
(dp78
sI69
(dp79
sI70
(dp80
sI71
(dp81
sI72
(dp82
sI73
(dp83
sI74
(dp84
sI75
(dp85
sI76
(dp86
sI77
(dp87
sI78
(dp88
sI79
(dp89
sI80
(dp90
sI81
(dp91
sI82
(dp92
sI83
(dp93
sI84
(dp94
sI85
(dp95
sI86
(dp96
sI87
(dp97
sI88
(dp98
sI89
(dp99
sI90
(dp100
sI91
(dp101
sI93
(dp102
sI94
(dp103
sI95
(dp104
sI96
(dp105
sI97
(dp106
sI98
(dp107
sI99
(dp108
sI100
(dp109
sI101
(dp110
sI102
(dp111
sI103
(dp112
sI104
(dp113
sI105
(dp114
sI106
(dp115
sI107
(dp116
sI108
(dp117
sI109
(dp118
sI110
(dp119
sI111
(dp120
sI112
(dp121
sI113
(dp122
sI114
(dp123
sI115
(dp124
sI116
(dp125
sI117
(dp126
sI118
(dp127
sI119
(dp128
sI120
(dp129
sI121
(dp130
sI122
(dp131
sI123
(dp132
sI124
(dp133
sI125
(dp134
sI126
(dp135
sI127
(dp136
sI128
(dp137
sI129
(dp138
sI130
(dp139
sI131
(dp140
sI132
(dp141
sI134
(dp142
sI135
(dp143
sI136
(dp144
sI137
(dp145
sI138
(dp146
sI139
(dp147
sI140
(dp148
sI141
(dp149
sI142
(dp150
sI143
(dp151
sI144
(dp152
sI145
(dp153
sI146
(dp154
sI147
(dp155
sI148
(dp156
sI149
(dp157
sI150
(dp158
sI151
(dp159
sI152
(dp160
sI153
(dp161
sI154
(dp162
sI155
(dp163
sI156
(dp164
sI157
(dp165
sI158
(dp166
sI159
(dp167
sI160
(dp168
sI161
(dp169
sI162
(dp170
sI163
(dp171
sI164
(dp172
sI165
(dp173
sI166
(dp174
sI167
(dp175
sI168
(dp176
sI169
(dp177
sI170
(dp178
sI171
(dp179
sI172
(dp180
sI173
(dp181
sI174
(dp182
sI175
(dp183
sI176
(dp184
sI177
(dp185
sI178
(dp186
sI179
(dp187
sI180
(dp188
sI181
(dp189
sI182
(dp190
sI183
(dp191
sI184
(dp192
sI185
(dp193
sI186
(dp194
sI187
(dp195
sI188
(dp196
sI189
(dp197
sI190
(dp198
sI191
(dp199
sI192
(dp200
sI193
(dp201
sI194
(dp202
sI195
(dp203
sI196
(dp204
sI197
(dp205
sI198
(dp206
sI199
(dp207
sI200
(dp208
sI201
(dp209
sI202
(dp210
sI203
(dp211
sI204
(dp212
sI205
(dp213
sI206
(dp214
sI207
(dp215
sI208
(dp216
sI209
(dp217
sI210
(dp218
sI211
(dp219
sI212
(dp220
sI213
(dp221
sI214
(dp222
sI215
(dp223
sI216
(dp224
sI217
(dp225
sI218
(dp226
sI219
(dp227
sI220
(dp228
sI221
(dp229
sI222
(dp230
sI223
(dp231
sI224
(dp232
sI225
(dp233
sI226
(dp234
sI227
(dp235
sI228
(dp236
sI229
(dp237
sI230
(dp238
sI231
(dp239
sI232
(dp240
sI233
(dp241
sI234
(dp242
sI235
(dp243
sI236
(dp244
sI237
(dp245
sI238
(dp246
sI239
(dp247
sI240
(dp248
sI241
(dp249
sI242
(dp250
sI243
(dp251
sI244
(dp252
sI245
(dp253
sI246
(dp254
sI247
(dp255
sI248
(dp256
sI249
(dp257
sI250
(dp258
sI251
(dp259
sI252
(dp260
sI253
(dp261
sI254
(dp262
sI255
(dp263
sI257
(dp264
sI258
(dp265
sI259
(dp266
sI260
(dp267
sI261
(dp268
sI262
(dp269
sI263
(dp270
sI264
(dp271
sI265
(dp272
sI266
(dp273
sI267
(dp274
sI268
(dp275
sI269
(dp276
sI270
(dp277
sI271
(dp278
sI272
(dp279
sI273
(dp280
sI274
(dp281
sI275
(dp282
sI276
(dp283
sI277
(dp284
sI278
(dp285
sI279
(dp286
sI280
(dp287
sI281
(dp288
sI282
(dp289
sI283
(dp290
sI284
(dp291
sI285
(dp292
sI286
(dp293
sI287
(dp294
sI288
(dp295
sI289
(dp296
sI290
(dp297
sI291
(dp298
sI292
(dp299
sI293
(dp300
sI294
(dp301
sI295
(dp302
sI296
(dp303
sI298
(dp304
sI299
(dp305
sI300
(dp306
sI301
(dp307
sI302
(dp308
sI303
(dp309
sI304
(dp310
sI305
(dp311
sI306
(dp312
sI307
(dp313
sI308
(dp314
sI309
(dp315
sI310
(dp316
sI311
(dp317
sI312
(dp318
sI313
(dp319
sI314
(dp320
sI315
(dp321
sI316
(dp322
sI317
(dp323
sI318
(dp324
sI319
(dp325
sI320
(dp326
sI321
(dp327
sI322
(dp328
sI323
(dp329
sI324
(dp330
sI325
(dp331
sI326
(dp332
sI327
(dp333
sI328
(dp334
sI329
(dp335
sI330
(dp336
sI331
(dp337
sI332
(dp338
sI333
(dp339
sI334
(dp340
sI335
(dp341
sI336
(dp342
sI337
(dp343
sI339
(dp344
sI340
(dp345
sI341
(dp346
sI342
(dp347
sI343
(dp348
sI344
(dp349
sI345
(dp350
sI346
(dp351
sI347
(dp352
sI348
(dp353
sI349
(dp354
sI350
(dp355
sI351
(dp356
sI352
(dp357
sI353
(dp358
sI354
(dp359
sI355
(dp360
sI356
(dp361
sI357
(dp362
sI358
(dp363
sI359
(dp364
sI360
(dp365
sI361
(dp366
sI362
(dp367
sI363
(dp368
sI364
(dp369
sI365
(dp370
sI366
(dp371
sI367
(dp372
sI368
(dp373
sI369
(dp374
sI370
(dp375
sI371
(dp376
sI372
(dp377
sI373
(dp378
sI374
(dp379
sI375
(dp380
sI376
(dp381
sI377
(dp382
sI378
(dp383
sI380
(dp384
sI381
(dp385
sI382
(dp386
sI383
(dp387
sI384
(dp388
sI385
(dp389
sI386
(dp390
sI387
(dp391
sI388
(dp392
sI389
(dp393
sI390
(dp394
sI391
(dp395
sI392
(dp396
sI393
(dp397
sI394
(dp398
sI395
(dp399
sI396
(dp400
sI397
(dp401
sI398
(dp402
sI399
(dp403
sI400
(dp404
sI401
(dp405
sI402
(dp406
sI403
(dp407
sI404
(dp408
sI405
(dp409
sI406
(dp410
sI407
(dp411
sI408
(dp412
sI409
(dp413
ssS'graph'
p414
(dp415
sS'root_graph'
p416
g4
sS'_adj'
p417
(dp418
I0
(dp419
I41
(dp420
sI1
(dp421
ssI1
(dp422
I0
g421
sI42
(dp423
sI2
(dp424
ssI2
(dp425
I3
(dp426
sI1
g424
sI43
(dp427
ssI3
(dp428
I4
(dp429
sI2
g426
sI44
(dp430
ssI4
(dp431
I3
g429
sI45
(dp432
sI5
(dp433
ssI5
(dp434
I4
g433
sI6
(dp435
sI46
(dp436
ssI6
(dp437
I7
(dp438
sI5
g435
sI47
(dp439
ssI7
(dp440
I48
(dp441
sI8
(dp442
sI6
g438
ssI8
(dp443
I49
(dp444
sI9
(dp445
sI7
g442
ssI9
(dp446
I8
g445
sI50
(dp447
ssI11
(dp448
I12
(dp449
sI52
(dp450
ssI12
(dp451
I11
g449
sI53
(dp452
sI13
(dp453
ssI13
(dp454
I12
g453
sI14
(dp455
sI54
(dp456
ssI14
(dp457
I15
(dp458
sI13
g455
sI55
(dp459
ssI15
(dp460
I56
(dp461
sI16
(dp462
sI14
g458
ssI16
(dp463
I57
(dp464
sI17
(dp465
sI15
g462
ssI17
(dp466
I16
g465
sI58
(dp467
sI18
(dp468
ssI18
(dp469
I19
(dp470
sI17
g468
sI59
(dp471
ssI19
(dp472
I20
(dp473
sI18
g470
sI60
(dp474
ssI20
(dp475
I19
g473
sI61
(dp476
sI21
(dp477
ssI21
(dp478
I20
g477
sI22
(dp479
sI62
(dp480
ssI22
(dp481
I23
(dp482
sI21
g479
sI63
(dp483
ssI23
(dp484
I64
(dp485
sI24
(dp486
sI22
g482
ssI24
(dp487
I65
(dp488
sI25
(dp489
sI23
g486
ssI25
(dp490
I24
g489
sI66
(dp491
sI26
(dp492
ssI26
(dp493
I27
(dp494
sI25
g492
sI67
(dp495
ssI27
(dp496
I28
(dp497
sI26
g494
sI68
(dp498
ssI28
(dp499
I27
g497
sI69
(dp500
sI29
(dp501
ssI29
(dp502
I28
g501
sI30
(dp503
sI70
(dp504
ssI30
(dp505
I31
(dp506
sI29
g503
sI71
(dp507
ssI31
(dp508
I72
(dp509
sI32
(dp510
sI30
g506
ssI32
(dp511
I73
(dp512
sI33
(dp513
sI31
g510
ssI33
(dp514
I32
g513
sI74
(dp515
sI34
(dp516
ssI34
(dp517
I33
g516
sI75
(dp518
sI35
(dp519
ssI35
(dp520
I36
(dp521
sI34
g519
sI76
(dp522
ssI36
(dp523
I35
g521
sI77
(dp524
sI37
(dp525
ssI37
(dp526
I36
g525
sI38
(dp527
sI78
(dp528
ssI38
(dp529
I39
(dp530
sI37
g527
sI79
(dp531
ssI39
(dp532
I80
(dp533
sI40
(dp534
sI38
g530
ssI40
(dp535
I81
(dp536
sI39
g534
ssI41
(dp537
I0
g420
sI82
(dp538
sI42
(dp539
ssI42
(dp540
I1
g423
sI83
(dp541
sI43
(dp542
sI41
g539
ssI43
(dp543
I44
(dp544
sI2
g427
sI84
(dp545
sI42
g542
ssI44
(dp546
I43
g544
sI3
g430
sI85
(dp547
sI45
(dp548
ssI45
(dp549
I44
g548
sI4
g432
sI46
(dp550
sI86
(dp551
ssI46
(dp552
I47
(dp553
sI87
(dp554
sI5
g436
sI45
g550
ssI47
(dp555
I88
(dp556
sI48
(dp557
sI46
g553
sI6
g439
ssI48
(dp558
I89
(dp559
sI47
g557
sI49
(dp560
sI7
g441
ssI49
(dp561
I8
g444
sI48
g560
sI90
(dp562
sI50
(dp563
ssI50
(dp564
I9
g447
sI91
(dp565
sI49
g563
ssI52
(dp566
I11
g450
sI93
(dp567
sI53
(dp568
ssI53
(dp569
I52
g568
sI12
g452
sI54
(dp570
sI94
(dp571
ssI54
(dp572
I55
(dp573
sI95
(dp574
sI13
g456
sI53
g570
ssI55
(dp575
I96
(dp576
sI56
(dp577
sI54
g573
sI14
g459
ssI56
(dp578
I97
(dp579
sI55
g577
sI57
(dp580
sI15
g461
ssI57
(dp581
I16
g464
sI56
g580
sI98
(dp582
sI58
(dp583
ssI58
(dp584
I17
g467
sI99
(dp585
sI59
(dp586
sI57
g583
ssI59
(dp587
I60
(dp588
sI18
g471
sI100
(dp589
sI58
g586
ssI60
(dp590
I59
g588
sI19
g474
sI101
(dp591
sI61
(dp592
ssI61
(dp593
I60
g592
sI20
g476
sI62
(dp594
sI102
(dp595
ssI62
(dp596
I63
(dp597
sI103
(dp598
sI21
g480
sI61
g594
ssI63
(dp599
I104
(dp600
sI64
(dp601
sI62
g597
sI22
g483
ssI64
(dp602
I105
(dp603
sI63
g601
sI65
(dp604
sI23
g485
ssI65
(dp605
I24
g488
sI64
g604
sI106
(dp606
sI66
(dp607
ssI66
(dp608
I25
g491
sI67
(dp609
sI107
(dp610
sI65
g607
ssI67
(dp611
I68
(dp612
sI26
g495
sI108
(dp613
sI66
g609
ssI68
(dp614
I67
g612
sI27
g498
sI109
(dp615
sI69
(dp616
ssI69
(dp617
I68
g616
sI28
g500
sI70
(dp618
sI110
(dp619
ssI70
(dp620
I71
(dp621
sI111
(dp622
sI29
g504
sI69
g618
ssI71
(dp623
I112
(dp624
sI72
(dp625
sI70
g621
sI30
g507
ssI72
(dp626
I113
(dp627
sI71
g625
sI73
(dp628
sI31
g509
ssI73
(dp629
I32
g512
sI72
g628
sI114
(dp630
sI74
(dp631
ssI74
(dp632
I33
g515
sI75
(dp633
sI115
(dp634
sI73
g631
ssI75
(dp635
I76
(dp636
sI34
g518
sI116
(dp637
sI74
g633
ssI76
(dp638
I75
g636
sI35
g522
sI117
(dp639
sI77
(dp640
ssI77
(dp641
I76
g640
sI36
g524
sI78
(dp642
sI118
(dp643
ssI78
(dp644
I79
(dp645
sI119
(dp646
sI37
g528
sI77
g642
ssI79
(dp647
I120
(dp648
sI80
(dp649
sI78
g645
sI38
g531
ssI80
(dp650
I121
(dp651
sI79
g649
sI81
(dp652
sI39
g533
ssI81
(dp653
I40
g536
sI80
g652
sI122
(dp654
ssI82
(dp655
I41
g538
sI83
(dp656
sI123
(dp657
ssI83
(dp658
I84
(dp659
sI42
g541
sI124
(dp660
sI82
g656
ssI84
(dp661
I83
g659
sI43
g545
sI125
(dp662
sI85
(dp663
ssI85
(dp664
I84
g663
sI44
g547
sI86
(dp665
sI126
(dp666
ssI86
(dp667
I87
(dp668
sI127
(dp669
sI45
g551
sI85
g665
ssI87
(dp670
I128
(dp671
sI88
(dp672
sI86
g668
sI46
g554
ssI88
(dp673
I129
(dp674
sI87
g672
sI89
(dp675
sI47
g556
ssI89
(dp676
I48
g559
sI88
g675
sI130
(dp677
sI90
(dp678
ssI90
(dp679
I49
g562
sI91
(dp680
sI131
(dp681
sI89
g678
ssI91
(dp682
I50
g565
sI132
(dp683
sI90
g680
ssI93
(dp684
I52
g567
sI94
(dp685
sI134
(dp686
ssI94
(dp687
I95
(dp688
sI135
(dp689
sI53
g571
sI93
g685
ssI95
(dp690
I136
(dp691
sI96
(dp692
sI94
g688
sI54
g574
ssI96
(dp693
I137
(dp694
sI95
g692
sI97
(dp695
sI55
g576
ssI97
(dp696
I56
g579
sI96
g695
sI138
(dp697
sI98
(dp698
ssI98
(dp699
I99
(dp700
sI57
g582
sI139
(dp701
sI97
g698
ssI99
(dp702
I100
(dp703
sI58
g585
sI140
(dp704
sI98
g700
ssI100
(dp705
I99
g703
sI59
g589
sI141
(dp706
sI101
(dp707
ssI101
(dp708
I100
g707
sI60
g591
sI102
(dp709
sI142
(dp710
ssI102
(dp711
I103
(dp712
sI143
(dp713
sI61
g595
sI101
g709
ssI103
(dp714
I144
(dp715
sI104
(dp716
sI102
g712
sI62
g598
ssI104
(dp717
I145
(dp718
sI103
g716
sI105
(dp719
sI63
g600
ssI105
(dp720
I64
g603
sI104
g719
sI146
(dp721
sI106
(dp722
ssI106
(dp723
I107
(dp724
sI65
g606
sI147
(dp725
sI105
g722
ssI107
(dp726
I108
(dp727
sI66
g610
sI148
(dp728
sI106
g724
ssI108
(dp729
I107
g727
sI67
g613
sI149
(dp730
sI109
(dp731
ssI109
(dp732
I108
g731
sI68
g615
sI110
(dp733
sI150
(dp734
ssI110
(dp735
I111
(dp736
sI151
(dp737
sI69
g619
sI109
g733
ssI111
(dp738
I152
(dp739
sI112
(dp740
sI110
g736
sI70
g622
ssI112
(dp741
I153
(dp742
sI111
g740
sI113
(dp743
sI71
g624
ssI113
(dp744
I72
g627
sI112
g743
sI154
(dp745
sI114
(dp746
ssI114
(dp747
I115
(dp748
sI73
g630
sI155
(dp749
sI113
g746
ssI115
(dp750
I116
(dp751
sI74
g634
sI156
(dp752
sI114
g748
ssI116
(dp753
I115
g751
sI75
g637
sI157
(dp754
sI117
(dp755
ssI117
(dp756
I116
g755
sI76
g639
sI118
(dp757
sI158
(dp758
ssI118
(dp759
I119
(dp760
sI159
(dp761
sI77
g643
sI117
g757
ssI119
(dp762
I160
(dp763
sI120
(dp764
sI118
g760
sI78
g646
ssI120
(dp765
I161
(dp766
sI119
g764
sI121
(dp767
sI79
g648
ssI121
(dp768
I80
g651
sI120
g767
sI162
(dp769
sI122
(dp770
ssI122
(dp771
I81
g654
sI163
(dp772
sI121
g770
ssI123
(dp773
I124
(dp774
sI82
g657
sI164
(dp775
ssI124
(dp776
I123
g774
sI83
g660
sI165
(dp777
sI125
(dp778
ssI125
(dp779
I124
g778
sI84
g662
sI126
(dp780
sI166
(dp781
ssI126
(dp782
I127
(dp783
sI167
(dp784
sI85
g666
sI125
g780
ssI127
(dp785
I168
(dp786
sI128
(dp787
sI126
g783
sI86
g669
ssI128
(dp788
I129
(dp789
sI169
(dp790
sI127
g787
sI87
g671
ssI129
(dp791
I88
g674
sI128
g789
sI170
(dp792
sI130
(dp793
ssI130
(dp794
I89
g677
sI171
(dp795
sI131
(dp796
sI129
g793
ssI131
(dp797
I132
(dp798
sI90
g681
sI172
(dp799
sI130
g796
ssI132
(dp800
I91
g683
sI131
g798
sI173
(dp801
ssI134
(dp802
I135
(dp803
sI93
g686
sI175
(dp804
ssI135
(dp805
I176
(dp806
sI136
(dp807
sI134
g803
sI94
g689
ssI136
(dp808
I137
(dp809
sI177
(dp810
sI135
g807
sI95
g691
ssI137
(dp811
I96
g694
sI136
g809
sI178
(dp812
sI138
(dp813
ssI138
(dp814
I97
g697
sI179
(dp815
sI139
(dp816
sI137
g813
ssI139
(dp817
I140
(dp818
sI98
g701
sI180
(dp819
sI138
g816
ssI140
(dp820
I99
g704
sI139
g818
sI181
(dp821
sI141
(dp822
ssI141
(dp823
I140
g822
sI100
g706
sI142
(dp824
sI182
(dp825
ssI142
(dp826
I183
(dp827
sI143
(dp828
sI101
g710
sI141
g824
ssI143
(dp829
I184
(dp830
sI144
(dp831
sI142
g828
sI102
g713
ssI144
(dp832
I145
(dp833
sI185
(dp834
sI143
g831
sI103
g715
ssI145
(dp835
I104
g718
sI144
g833
sI186
(dp836
sI146
(dp837
ssI146
(dp838
I105
g721
sI187
(dp839
sI147
(dp840
sI145
g837
ssI147
(dp841
I148
(dp842
sI106
g725
sI188
(dp843
sI146
g840
ssI148
(dp844
I107
g728
sI147
g842
sI189
(dp845
sI149
(dp846
ssI149
(dp847
I148
g846
sI108
g730
sI150
(dp848
sI190
(dp849
ssI150
(dp850
I191
(dp851
sI151
(dp852
sI109
g734
sI149
g848
ssI151
(dp853
I192
(dp854
sI152
(dp855
sI150
g852
sI110
g737
ssI152
(dp856
I153
(dp857
sI193
(dp858
sI151
g855
sI111
g739
ssI153
(dp859
I112
g742
sI152
g857
sI194
(dp860
sI154
(dp861
ssI154
(dp862
I113
g745
sI195
(dp863
sI155
(dp864
sI153
g861
ssI155
(dp865
I156
(dp866
sI114
g749
sI196
(dp867
sI154
g864
ssI156
(dp868
I115
g752
sI155
g866
sI197
(dp869
sI157
(dp870
ssI157
(dp871
I156
g870
sI116
g754
sI158
(dp872
sI198
(dp873
ssI158
(dp874
I199
(dp875
sI159
(dp876
sI117
g758
sI157
g872
ssI159
(dp877
I200
(dp878
sI160
(dp879
sI158
g876
sI118
g761
ssI160
(dp880
I201
(dp881
sI159
g879
sI161
(dp882
sI119
g763
ssI161
(dp883
I120
g766
sI160
g882
sI202
(dp884
sI162
(dp885
ssI162
(dp886
I121
g769
sI203
(dp887
sI163
(dp888
sI161
g885
ssI163
(dp889
I122
g772
sI204
(dp890
sI162
g888
ssI164
(dp891
I123
g775
sI205
(dp892
sI165
(dp893
ssI165
(dp894
I164
g893
sI124
g777
sI166
(dp895
sI206
(dp896
ssI166
(dp897
I167
(dp898
sI207
(dp899
sI125
g781
sI165
g895
ssI167
(dp900
I208
(dp901
sI168
(dp902
sI166
g898
sI126
g784
ssI168
(dp903
I209
(dp904
sI167
g902
sI169
(dp905
sI127
g786
ssI169
(dp906
I128
g790
sI168
g905
sI210
(dp907
sI170
(dp908
ssI170
(dp909
I129
g792
sI211
(dp910
sI171
(dp911
sI169
g908
ssI171
(dp912
I172
(dp913
sI130
g795
sI212
(dp914
sI170
g911
ssI172
(dp915
I173
(dp916
sI131
g799
sI171
g913
sI213
(dp917
ssI173
(dp918
I172
g916
sI132
g801
sI174
(dp919
sI214
(dp920
ssI174
(dp921
I175
(dp922
sI173
g919
sI215
(dp923
ssI175
(dp924
I216
(dp925
sI176
(dp926
sI174
g922
sI134
g804
ssI176
(dp927
I217
(dp928
sI175
g926
sI177
(dp929
sI135
g806
ssI177
(dp930
I136
g810
sI176
g929
sI218
(dp931
sI178
(dp932
ssI178
(dp933
I137
g812
sI219
(dp934
sI179
(dp935
sI177
g932
ssI179
(dp936
I180
(dp937
sI138
g815
sI220
(dp938
sI178
g935
ssI180
(dp939
I181
(dp940
sI139
g819
sI179
g937
sI221
(dp941
ssI181
(dp942
I180
g940
sI140
g821
sI182
(dp943
sI222
(dp944
ssI182
(dp945
I183
(dp946
sI223
(dp947
sI141
g825
sI181
g943
ssI183
(dp948
I224
(dp949
sI184
(dp950
sI182
g946
sI142
g827
ssI184
(dp951
I225
(dp952
sI183
g950
sI185
(dp953
sI143
g830
ssI185
(dp954
I144
g834
sI184
g953
sI226
(dp955
sI186
(dp956
ssI186
(dp957
I145
g836
sI227
(dp958
sI187
(dp959
sI185
g956
ssI187
(dp960
I188
(dp961
sI146
g839
sI228
(dp962
sI186
g959
ssI188
(dp963
I189
(dp964
sI147
g843
sI187
g961
sI229
(dp965
ssI189
(dp966
I188
g964
sI148
g845
sI190
(dp967
sI230
(dp968
ssI190
(dp969
I191
(dp970
sI231
(dp971
sI149
g849
sI189
g967
ssI191
(dp972
I232
(dp973
sI192
(dp974
sI190
g970
sI150
g851
ssI192
(dp975
I233
(dp976
sI193
(dp977
sI191
g974
sI151
g854
ssI193
(dp978
I152
g858
sI192
g977
sI234
(dp979
sI194
(dp980
ssI194
(dp981
I153
g860
sI235
(dp982
sI195
(dp983
sI193
g980
ssI195
(dp984
I196
(dp985
sI154
g863
sI236
(dp986
sI194
g983
ssI196
(dp987
I155
g867
sI237
(dp988
sI195
g985
sI197
(dp989
ssI197
(dp990
I196
g989
sI156
g869
sI198
(dp991
sI238
(dp992
ssI198
(dp993
I239
(dp994
sI157
g873
sI199
(dp995
sI197
g991
ssI199
(dp996
I240
(dp997
sI200
(dp998
sI198
g995
sI158
g875
ssI200
(dp999
I241
(dp1000
sI201
(dp1001
sI199
g998
sI159
g878
ssI201
(dp1002
I160
g881
sI200
g1001
sI242
(dp1003
sI202
(dp1004
ssI202
(dp1005
I161
g884
sI243
(dp1006
sI203
(dp1007
sI201
g1004
ssI203
(dp1008
I204
(dp1009
sI162
g887
sI244
(dp1010
sI202
g1007
ssI204
(dp1011
I163
g890
sI245
(dp1012
sI203
g1009
ssI205
(dp1013
I164
g892
sI206
(dp1014
sI246
(dp1015
ssI206
(dp1016
I247
(dp1017
sI165
g896
sI207
(dp1018
sI205
g1014
ssI207
(dp1019
I248
(dp1020
sI208
(dp1021
sI206
g1018
sI166
g899
ssI208
(dp1022
I249
(dp1023
sI209
(dp1024
sI207
g1021
sI167
g901
ssI209
(dp1025
I168
g904
sI208
g1024
sI250
(dp1026
sI210
(dp1027
ssI210
(dp1028
I169
g907
sI251
(dp1029
sI211
(dp1030
sI209
g1027
ssI211
(dp1031
I212
(dp1032
sI170
g910
sI252
(dp1033
sI210
g1030
ssI212
(dp1034
I171
g914
sI253
(dp1035
sI211
g1032
sI213
(dp1036
ssI213
(dp1037
I212
g1036
sI172
g917
sI214
(dp1038
sI254
(dp1039
ssI214
(dp1040
I255
(dp1041
sI173
g920
sI215
(dp1042
sI213
g1038
ssI215
(dp1043
I216
(dp1044
sI214
g1042
sI174
g923
ssI216
(dp1045
I257
(dp1046
sI217
(dp1047
sI215
g1044
sI175
g925
ssI217
(dp1048
I176
g928
sI216
g1047
sI258
(dp1049
sI218
(dp1050
ssI218
(dp1051
I177
g931
sI259
(dp1052
sI219
(dp1053
sI217
g1050
ssI219
(dp1054
I220
(dp1055
sI178
g934
sI260
(dp1056
sI218
g1053
ssI220
(dp1057
I179
g938
sI261
(dp1058
sI219
g1055
sI221
(dp1059
ssI221
(dp1060
I220
g1059
sI180
g941
sI222
(dp1061
sI262
(dp1062
ssI222
(dp1063
I263
(dp1064
sI181
g944
sI223
(dp1065
sI221
g1061
ssI223
(dp1066
I264
(dp1067
sI224
(dp1068
sI222
g1065
sI182
g947
ssI224
(dp1069
I225
(dp1070
sI265
(dp1071
sI223
g1068
sI183
g949
ssI225
(dp1072
I184
g952
sI224
g1070
sI266
(dp1073
sI226
(dp1074
ssI226
(dp1075
I185
g955
sI267
(dp1076
sI227
(dp1077
sI225
g1074
ssI227
(dp1078
I228
(dp1079
sI186
g958
sI268
(dp1080
sI226
g1077
ssI228
(dp1081
I229
(dp1082
sI187
g962
sI269
(dp1083
sI227
g1079
ssI229
(dp1084
I228
g1082
sI188
g965
sI230
(dp1085
sI270
(dp1086
ssI230
(dp1087
I271
(dp1088
sI231
(dp1089
sI189
g968
sI229
g1085
ssI231
(dp1090
I272
(dp1091
sI232
(dp1092
sI230
g1089
sI190
g971
ssI232
(dp1093
I233
(dp1094
sI273
(dp1095
sI231
g1092
sI191
g973
ssI233
(dp1096
I192
g976
sI232
g1094
sI274
(dp1097
sI234
(dp1098
ssI234
(dp1099
I193
g979
sI275
(dp1100
sI235
(dp1101
sI233
g1098
ssI235
(dp1102
I236
(dp1103
sI194
g982
sI276
(dp1104
sI234
g1101
ssI236
(dp1105
I237
(dp1106
sI195
g986
sI277
(dp1107
sI235
g1103
ssI237
(dp1108
I236
g1106
sI196
g988
sI238
(dp1109
sI278
(dp1110
ssI238
(dp1111
I279
(dp1112
sI239
(dp1113
sI197
g992
sI237
g1109
ssI239
(dp1114
I280
(dp1115
sI240
(dp1116
sI238
g1113
sI198
g994
ssI240
(dp1117
I241
(dp1118
sI281
(dp1119
sI239
g1116
sI199
g997
ssI241
(dp1120
I200
g1000
sI240
g1118
sI282
(dp1121
sI242
(dp1122
ssI242
(dp1123
I201
g1003
sI283
(dp1124
sI243
(dp1125
sI241
g1122
ssI243
(dp1126
I244
(dp1127
sI202
g1006
sI284
(dp1128
sI242
g1125
ssI244
(dp1129
I245
(dp1130
sI203
g1010
sI285
(dp1131
sI243
g1127
ssI245
(dp1132
I244
g1130
sI204
g1012
sI286
(dp1133
ssI246
(dp1134
I247
(dp1135
sI205
g1015
sI287
(dp1136
ssI247
(dp1137
I288
(dp1138
sI248
(dp1139
sI246
g1135
sI206
g1017
ssI248
(dp1140
I249
(dp1141
sI289
(dp1142
sI247
g1139
sI207
g1020
ssI249
(dp1143
I208
g1023
sI248
g1141
sI290
(dp1144
sI250
(dp1145
ssI250
(dp1146
I209
g1026
sI291
(dp1147
sI251
(dp1148
sI249
g1145
ssI251
(dp1149
I252
(dp1150
sI210
g1029
sI292
(dp1151
sI250
g1148
ssI252
(dp1152
I253
(dp1153
sI211
g1033
sI293
(dp1154
sI251
g1150
ssI253
(dp1155
I252
g1153
sI212
g1035
sI254
(dp1156
sI294
(dp1157
ssI254
(dp1158
I295
(dp1159
sI255
(dp1160
sI213
g1039
sI253
g1156
ssI255
(dp1161
I296
(dp1162
sI254
g1160
sI214
g1041
ssI257
(dp1163
I216
g1046
sI298
(dp1164
sI258
(dp1165
ssI258
(dp1166
I259
(dp1167
sI217
g1049
sI299
(dp1168
sI257
g1165
ssI259
(dp1169
I260
(dp1170
sI218
g1052
sI300
(dp1171
sI258
g1167
ssI260
(dp1172
I259
g1170
sI219
g1056
sI301
(dp1173
sI261
(dp1174
ssI261
(dp1175
I260
g1174
sI220
g1058
sI262
(dp1176
sI302
(dp1177
ssI262
(dp1178
I263
(dp1179
sI303
(dp1180
sI221
g1062
sI261
g1176
ssI263
(dp1181
I304
(dp1182
sI264
(dp1183
sI262
g1179
sI222
g1064
ssI264
(dp1184
I305
(dp1185
sI263
g1183
sI265
(dp1186
sI223
g1067
ssI265
(dp1187
I224
g1071
sI264
g1186
sI306
(dp1188
sI266
(dp1189
ssI266
(dp1190
I267
(dp1191
sI225
g1073
sI307
(dp1192
sI265
g1189
ssI267
(dp1193
I268
(dp1194
sI226
g1076
sI308
(dp1195
sI266
g1191
ssI268
(dp1196
I267
g1194
sI227
g1080
sI309
(dp1197
sI269
(dp1198
ssI269
(dp1199
I268
g1198
sI228
g1083
sI270
(dp1200
sI310
(dp1201
ssI270
(dp1202
I271
(dp1203
sI311
(dp1204
sI229
g1086
sI269
g1200
ssI271
(dp1205
I312
(dp1206
sI272
(dp1207
sI270
g1203
sI230
g1088
ssI272
(dp1208
I313
(dp1209
sI271
g1207
sI273
(dp1210
sI231
g1091
ssI273
(dp1211
I232
g1095
sI272
g1210
sI314
(dp1212
sI274
(dp1213
ssI274
(dp1214
I275
(dp1215
sI233
g1097
sI315
(dp1216
sI273
g1213
ssI275
(dp1217
I276
(dp1218
sI234
g1100
sI316
(dp1219
sI274
g1215
ssI276
(dp1220
I275
g1218
sI235
g1104
sI317
(dp1221
sI277
(dp1222
ssI277
(dp1223
I276
g1222
sI236
g1107
sI278
(dp1224
sI318
(dp1225
ssI278
(dp1226
I279
(dp1227
sI319
(dp1228
sI237
g1110
sI277
g1224
ssI279
(dp1229
I320
(dp1230
sI280
(dp1231
sI278
g1227
sI238
g1112
ssI280
(dp1232
I321
(dp1233
sI279
g1231
sI281
(dp1234
sI239
g1115
ssI281
(dp1235
I240
g1119
sI280
g1234
sI322
(dp1236
sI282
(dp1237
ssI282
(dp1238
I283
(dp1239
sI241
g1121
sI323
(dp1240
sI281
g1237
ssI283
(dp1241
I284
(dp1242
sI242
g1124
sI324
(dp1243
sI282
g1239
ssI284
(dp1244
I283
g1242
sI243
g1128
sI325
(dp1245
sI285
(dp1246
ssI285
(dp1247
I284
g1246
sI244
g1131
sI286
(dp1248
sI326
(dp1249
ssI286
(dp1250
I327
(dp1251
sI245
g1133
sI285
g1248
ssI287
(dp1252
I328
(dp1253
sI288
(dp1254
sI246
g1136
ssI288
(dp1255
I329
(dp1256
sI287
g1254
sI289
(dp1257
sI247
g1138
ssI289
(dp1258
I248
g1142
sI288
g1257
sI330
(dp1259
sI290
(dp1260
ssI290
(dp1261
I249
g1144
sI331
(dp1262
sI291
(dp1263
sI289
g1260
ssI291
(dp1264
I292
(dp1265
sI250
g1147
sI332
(dp1266
sI290
g1263
ssI292
(dp1267
I291
g1265
sI251
g1151
sI333
(dp1268
sI293
(dp1269
ssI293
(dp1270
I292
g1269
sI252
g1154
sI294
(dp1271
sI334
(dp1272
ssI294
(dp1273
I295
(dp1274
sI335
(dp1275
sI253
g1157
sI293
g1271
ssI295
(dp1276
I336
(dp1277
sI296
(dp1278
sI294
g1274
sI254
g1159
ssI296
(dp1279
I337
(dp1280
sI295
g1278
sI255
g1162
ssI298
(dp1281
I257
g1164
sI339
(dp1282
sI299
(dp1283
ssI299
(dp1284
I300
(dp1285
sI258
g1168
sI340
(dp1286
sI298
g1283
ssI300
(dp1287
I299
g1285
sI259
g1171
sI341
(dp1288
sI301
(dp1289
ssI301
(dp1290
I300
g1289
sI260
g1173
sI302
(dp1291
sI342
(dp1292
ssI302
(dp1293
I303
(dp1294
sI343
(dp1295
sI261
g1177
sI301
g1291
ssI303
(dp1296
I344
(dp1297
sI304
(dp1298
sI302
g1294
sI262
g1180
ssI304
(dp1299
I345
(dp1300
sI303
g1298
sI305
(dp1301
sI263
g1182
ssI305
(dp1302
I264
g1185
sI304
g1301
sI346
(dp1303
sI306
(dp1304
ssI306
(dp1305
I265
g1188
sI347
(dp1306
sI307
(dp1307
sI305
g1304
ssI307
(dp1308
I308
(dp1309
sI266
g1192
sI348
(dp1310
sI306
g1307
ssI308
(dp1311
I307
g1309
sI267
g1195
sI349
(dp1312
sI309
(dp1313
ssI309
(dp1314
I308
g1313
sI268
g1197
sI310
(dp1315
sI350
(dp1316
ssI310
(dp1317
I311
(dp1318
sI351
(dp1319
sI269
g1201
sI309
g1315
ssI311
(dp1320
I352
(dp1321
sI312
(dp1322
sI310
g1318
sI270
g1204
ssI312
(dp1323
I353
(dp1324
sI311
g1322
sI313
(dp1325
sI271
g1206
ssI313
(dp1326
I272
g1209
sI312
g1325
sI354
(dp1327
sI314
(dp1328
ssI314
(dp1329
I273
g1212
sI355
(dp1330
sI315
(dp1331
sI313
g1328
ssI315
(dp1332
I316
(dp1333
sI274
g1216
sI356
(dp1334
sI314
g1331
ssI316
(dp1335
I315
g1333
sI275
g1219
sI357
(dp1336
sI317
(dp1337
ssI317
(dp1338
I316
g1337
sI276
g1221
sI318
(dp1339
sI358
(dp1340
ssI318
(dp1341
I319
(dp1342
sI359
(dp1343
sI277
g1225
sI317
g1339
ssI319
(dp1344
I360
(dp1345
sI320
(dp1346
sI318
g1342
sI278
g1228
ssI320
(dp1347
I361
(dp1348
sI319
g1346
sI321
(dp1349
sI279
g1230
ssI321
(dp1350
I280
g1233
sI320
g1349
sI362
(dp1351
sI322
(dp1352
ssI322
(dp1353
I281
g1236
sI323
(dp1354
sI363
(dp1355
sI321
g1352
ssI323
(dp1356
I324
(dp1357
sI282
g1240
sI364
(dp1358
sI322
g1354
ssI324
(dp1359
I323
g1357
sI283
g1243
sI365
(dp1360
sI325
(dp1361
ssI325
(dp1362
I324
g1361
sI284
g1245
sI326
(dp1363
sI366
(dp1364
ssI326
(dp1365
I327
(dp1366
sI367
(dp1367
sI285
g1249
sI325
g1363
ssI327
(dp1368
I368
(dp1369
sI326
g1366
sI286
g1251
ssI328
(dp1370
I369
(dp1371
sI329
(dp1372
sI287
g1253
ssI329
(dp1373
I288
g1256
sI328
g1372
sI370
(dp1374
sI330
(dp1375
ssI330
(dp1376
I289
g1259
sI331
(dp1377
sI371
(dp1378
sI329
g1375
ssI331
(dp1379
I332
(dp1380
sI290
g1262
sI372
(dp1381
sI330
g1377
ssI332
(dp1382
I331
g1380
sI291
g1266
sI373
(dp1383
sI333
(dp1384
ssI333
(dp1385
I332
g1384
sI292
g1268
sI334
(dp1386
sI374
(dp1387
ssI334
(dp1388
I335
(dp1389
sI375
(dp1390
sI293
g1272
sI333
g1386
ssI335
(dp1391
I376
(dp1392
sI336
(dp1393
sI334
g1389
sI294
g1275
ssI336
(dp1394
I377
(dp1395
sI335
g1393
sI337
(dp1396
sI295
g1277
ssI337
(dp1397
I296
g1280
sI336
g1396
sI378
(dp1398
ssI339
(dp1399
I340
(dp1400
sI298
g1282
sI380
(dp1401
ssI340
(dp1402
I339
g1400
sI299
g1286
sI381
(dp1403
sI341
(dp1404
ssI341
(dp1405
I340
g1404
sI300
g1288
sI342
(dp1406
sI382
(dp1407
ssI342
(dp1408
I343
(dp1409
sI383
(dp1410
sI301
g1292
sI341
g1406
ssI343
(dp1411
I384
(dp1412
sI344
(dp1413
sI342
g1409
sI302
g1295
ssI344
(dp1414
I385
(dp1415
sI343
g1413
sI345
(dp1416
sI303
g1297
ssI345
(dp1417
I304
g1300
sI344
g1416
sI386
(dp1418
sI346
(dp1419
ssI346
(dp1420
I305
g1303
sI347
(dp1421
sI387
(dp1422
sI345
g1419
ssI347
(dp1423
I348
(dp1424
sI306
g1306
sI388
(dp1425
sI346
g1421
ssI348
(dp1426
I347
g1424
sI307
g1310
sI389
(dp1427
sI349
(dp1428
ssI349
(dp1429
I348
g1428
sI308
g1312
sI350
(dp1430
sI390
(dp1431
ssI350
(dp1432
I351
(dp1433
sI391
(dp1434
sI309
g1316
sI349
g1430
ssI351
(dp1435
I392
(dp1436
sI352
(dp1437
sI350
g1433
sI310
g1319
ssI352
(dp1438
I393
(dp1439
sI351
g1437
sI353
(dp1440
sI311
g1321
ssI353
(dp1441
I312
g1324
sI352
g1440
sI394
(dp1442
sI354
(dp1443
ssI354
(dp1444
I355
(dp1445
sI313
g1327
sI395
(dp1446
sI353
g1443
ssI355
(dp1447
I356
(dp1448
sI314
g1330
sI396
(dp1449
sI354
g1445
ssI356
(dp1450
I355
g1448
sI315
g1334
sI397
(dp1451
sI357
(dp1452
ssI357
(dp1453
I356
g1452
sI316
g1336
sI358
(dp1454
sI398
(dp1455
ssI358
(dp1456
I359
(dp1457
sI399
(dp1458
sI317
g1340
sI357
g1454
ssI359
(dp1459
I400
(dp1460
sI360
(dp1461
sI358
g1457
sI318
g1343
ssI360
(dp1462
I401
(dp1463
sI359
g1461
sI361
(dp1464
sI319
g1345
ssI361
(dp1465
I320
g1348
sI360
g1464
sI402
(dp1466
sI362
(dp1467
ssI362
(dp1468
I363
(dp1469
sI321
g1351
sI403
(dp1470
sI361
g1467
ssI363
(dp1471
I364
(dp1472
sI322
g1355
sI404
(dp1473
sI362
g1469
ssI364
(dp1474
I363
g1472
sI323
g1358
sI405
(dp1475
sI365
(dp1476
ssI365
(dp1477
I364
g1476
sI324
g1360
sI366
(dp1478
sI406
(dp1479
ssI366
(dp1480
I367
(dp1481
sI407
(dp1482
sI325
g1364
sI365
g1478
ssI367
(dp1483
I408
(dp1484
sI368
(dp1485
sI366
g1481
sI326
g1367
ssI368
(dp1486
I409
(dp1487
sI367
g1485
sI327
g1369
ssI369
(dp1488
I328
g1371
sI370
(dp1489
ssI370
(dp1490
I329
g1374
sI371
(dp1491
sI369
g1489
ssI371
(dp1492
I330
g1378
sI372
(dp1493
sI370
g1491
ssI372
(dp1494
I371
g1493
sI331
g1381
sI373
(dp1495
ssI373
(dp1496
I372
g1495
sI332
g1383
sI374
(dp1497
ssI374
(dp1498
I375
(dp1499
sI333
g1387
sI373
g1497
ssI375
(dp1500
I376
(dp1501
sI374
g1499
sI334
g1390
ssI376
(dp1502
I377
(dp1503
sI375
g1501
sI335
g1392
ssI377
(dp1504
I336
g1395
sI376
g1503
sI378
(dp1505
ssI378
(dp1506
I337
g1398
sI377
g1505
ssI380
(dp1507
I339
g1401
sI381
(dp1508
ssI381
(dp1509
I380
g1508
sI340
g1403
sI382
(dp1510
ssI382
(dp1511
I383
(dp1512
sI341
g1407
sI381
g1510
ssI383
(dp1513
I384
(dp1514
sI382
g1512
sI342
g1410
ssI384
(dp1515
I385
(dp1516
sI383
g1514
sI343
g1412
ssI385
(dp1517
I344
g1415
sI384
g1516
sI386
(dp1518
ssI386
(dp1519
I345
g1418
sI387
(dp1520
sI385
g1518
ssI387
(dp1521
I346
g1422
sI388
(dp1522
sI386
g1520
ssI388
(dp1523
I347
g1425
sI387
g1522
sI389
(dp1524
ssI389
(dp1525
I388
g1524
sI348
g1427
sI390
(dp1526
ssI390
(dp1527
I391
(dp1528
sI349
g1431
sI389
g1526
ssI391
(dp1529
I392
(dp1530
sI390
g1528
sI350
g1434
ssI392
(dp1531
I393
(dp1532
sI391
g1530
sI351
g1436
ssI393
(dp1533
I352
g1439
sI392
g1532
sI394
(dp1534
ssI394
(dp1535
I353
g1442
sI395
(dp1536
sI393
g1534
ssI395
(dp1537
I354
g1446
sI396
(dp1538
sI394
g1536
ssI396
(dp1539
I355
g1449
sI395
g1538
sI397
(dp1540
ssI397
(dp1541
I396
g1540
sI356
g1451
sI398
(dp1542
ssI398
(dp1543
I399
(dp1544
sI357
g1455
sI397
g1542
ssI399
(dp1545
I400
(dp1546
sI398
g1544
sI358
g1458
ssI400
(dp1547
I401
(dp1548
sI399
g1546
sI359
g1460
ssI401
(dp1549
I360
g1463
sI400
g1548
sI402
(dp1550
ssI402
(dp1551
I361
g1466
sI403
(dp1552
sI401
g1550
ssI403
(dp1553
I362
g1470
sI404
(dp1554
sI402
g1552
ssI404
(dp1555
I363
g1473
sI403
g1554
sI405
(dp1556
ssI405
(dp1557
I404
g1556
sI364
g1475
sI406
(dp1558
ssI406
(dp1559
I407
(dp1560
sI365
g1479
sI405
g1558
ssI407
(dp1561
I408
(dp1562
sI406
g1560
sI366
g1482
ssI408
(dp1563
I409
(dp1564
sI407
g1562
sI367
g1484
ssI409
(dp1565
I368
g1487
sI408
g1564
sssS'adjlist_outer_dict_factory'
p1566
g7
sb.