ccopy_reg
_reconstructor
p0
(cnetworkx.classes.graph
Graph
p1
c__builtin__
object
p2
Ntp3
Rp4
(dp5
S'adjlist_inner_dict_factory'
p6
c__builtin__
dict
p7
sS'node_dict_factory'
p8
g7
sS'edge_attr_dict_factory'
p9
g7
sS'_node'
p10
(dp11
I0
(dp12
sI1
(dp13
sI2
(dp14
sI3
(dp15
sI4
(dp16
sI5
(dp17
sI6
(dp18
sI7
(dp19
sI8
(dp20
sI9
(dp21
sI10
(dp22
sI11
(dp23
sI12
(dp24
sI13
(dp25
sI14
(dp26
sI15
(dp27
sI16
(dp28
sI17
(dp29
sI18
(dp30
sI19
(dp31
sI20
(dp32
sI21
(dp33
sI22
(dp34
sI23
(dp35
sI24
(dp36
sI26
(dp37
sI27
(dp38
sI28
(dp39
sI29
(dp40
sI30
(dp41
sI31
(dp42
sI32
(dp43
sI33
(dp44
sI34
(dp45
sI35
(dp46
sI36
(dp47
sI37
(dp48
sI38
(dp49
sI39
(dp50
sI40
(dp51
sI41
(dp52
sI42
(dp53
sI43
(dp54
sI44
(dp55
sI45
(dp56
sI46
(dp57
sI47
(dp58
sI48
(dp59
sI49
(dp60
sI50
(dp61
sI51
(dp62
sI52
(dp63
sI53
(dp64
sI54
(dp65
sI55
(dp66
sI56
(dp67
sI57
(dp68
sI58
(dp69
sI59
(dp70
sI60
(dp71
sI61
(dp72
sI62
(dp73
sI63
(dp74
sI64
(dp75
sI65
(dp76
sI66
(dp77
sI67
(dp78
sI68
(dp79
sI69
(dp80
sI70
(dp81
sI71
(dp82
sI72
(dp83
sI73
(dp84
sI74
(dp85
sI75
(dp86
sI77
(dp87
sI78
(dp88
sI79
(dp89
sI80
(dp90
sI81
(dp91
sI82
(dp92
sI83
(dp93
sI84
(dp94
sI85
(dp95
sI86
(dp96
sI87
(dp97
sI88
(dp98
sI89
(dp99
sI90
(dp100
sI91
(dp101
sI92
(dp102
sI93
(dp103
sI94
(dp104
sI95
(dp105
sI96
(dp106
sI97
(dp107
sI98
(dp108
sI99
(dp109
sI100
(dp110
sI101
(dp111
sI102
(dp112
sI103
(dp113
sI104
(dp114
sI105
(dp115
sI106
(dp116
sI107
(dp117
sI108
(dp118
sI109
(dp119
sI110
(dp120
sI111
(dp121
sI112
(dp122
sI113
(dp123
sI114
(dp124
sI115
(dp125
sI116
(dp126
sI117
(dp127
sI118
(dp128
sI119
(dp129
sI120
(dp130
sI121
(dp131
sI122
(dp132
sI123
(dp133
sI124
(dp134
sI125
(dp135
sI126
(dp136
sI128
(dp137
sI129
(dp138
sI130
(dp139
sI131
(dp140
sI132
(dp141
sI133
(dp142
sI134
(dp143
sI135
(dp144
sI136
(dp145
sI137
(dp146
sI138
(dp147
sI139
(dp148
sI140
(dp149
sI141
(dp150
sI142
(dp151
sI143
(dp152
sI144
(dp153
sI145
(dp154
sI146
(dp155
sI147
(dp156
sI148
(dp157
sI149
(dp158
sI150
(dp159
sI151
(dp160
sI152
(dp161
sI153
(dp162
sI154
(dp163
sI155
(dp164
sI156
(dp165
sI157
(dp166
sI158
(dp167
sI159
(dp168
sI160
(dp169
sI161
(dp170
sI162
(dp171
sI163
(dp172
sI164
(dp173
sI165
(dp174
sI166
(dp175
sI167
(dp176
sI168
(dp177
sI169
(dp178
sI170
(dp179
sI171
(dp180
sI172
(dp181
sI173
(dp182
sI174
(dp183
sI175
(dp184
sI176
(dp185
sI177
(dp186
sI179
(dp187
sI180
(dp188
sI181
(dp189
sI182
(dp190
sI183
(dp191
sI184
(dp192
sI185
(dp193
sI186
(dp194
sI187
(dp195
sI188
(dp196
sI189
(dp197
sI190
(dp198
sI191
(dp199
sI192
(dp200
sI193
(dp201
sI194
(dp202
sI195
(dp203
sI196
(dp204
sI197
(dp205
sI198
(dp206
sI199
(dp207
sI200
(dp208
sI201
(dp209
sI202
(dp210
sI203
(dp211
sI204
(dp212
sI205
(dp213
sI206
(dp214
sI207
(dp215
sI208
(dp216
sI209
(dp217
sI210
(dp218
sI211
(dp219
sI212
(dp220
sI213
(dp221
sI214
(dp222
sI215
(dp223
sI216
(dp224
sI217
(dp225
sI218
(dp226
sI219
(dp227
sI220
(dp228
sI221
(dp229
sI222
(dp230
sI223
(dp231
sI224
(dp232
sI225
(dp233
sI226
(dp234
sI227
(dp235
sI228
(dp236
sI229
(dp237
sI230
(dp238
sI231
(dp239
sI232
(dp240
sI233
(dp241
sI234
(dp242
sI235
(dp243
sI236
(dp244
sI237
(dp245
sI238
(dp246
sI239
(dp247
sI240
(dp248
sI241
(dp249
sI242
(dp250
sI243
(dp251
sI244
(dp252
sI245
(dp253
sI246
(dp254
sI247
(dp255
sI248
(dp256
sI249
(dp257
sI250
(dp258
sI251
(dp259
sI252
(dp260
sI253
(dp261
sI254
(dp262
sI255
(dp263
sI256
(dp264
sI257
(dp265
sI258
(dp266
sI259
(dp267
sI260
(dp268
sI261
(dp269
sI262
(dp270
sI263
(dp271
sI264
(dp272
sI265
(dp273
sI266
(dp274
sI267
(dp275
sI268
(dp276
sI269
(dp277
sI270
(dp278
sI271
(dp279
sI272
(dp280
sI273
(dp281
sI274
(dp282
sI275
(dp283
sI276
(dp284
sI277
(dp285
sI278
(dp286
sI279
(dp287
sI280
(dp288
sI281
(dp289
sI282
(dp290
sI283
(dp291
sI284
(dp292
sI285
(dp293
sI286
(dp294
sI287
(dp295
sI288
(dp296
sI289
(dp297
sI290
(dp298
sI291
(dp299
sI292
(dp300
sI293
(dp301
sI294
(dp302
sI295
(dp303
sI296
(dp304
sI297
(dp305
sI298
(dp306
sI299
(dp307
sI300
(dp308
sI301
(dp309
sI302
(dp310
sI303
(dp311
sI304
(dp312
sI305
(dp313
sI306
(dp314
sI307
(dp315
sI308
(dp316
sI309
(dp317
sI310
(dp318
sI311
(dp319
sI312
(dp320
sI313
(dp321
sI314
(dp322
sI315
(dp323
sI316
(dp324
sI317
(dp325
sI318
(dp326
sI319
(dp327
sI320
(dp328
sI321
(dp329
sI322
(dp330
sI323
(dp331
sI324
(dp332
sI325
(dp333
sI326
(dp334
sI327
(dp335
sI328
(dp336
sI329
(dp337
sI330
(dp338
sI332
(dp339
sI333
(dp340
sI334
(dp341
sI335
(dp342
sI336
(dp343
sI337
(dp344
sI338
(dp345
sI339
(dp346
sI340
(dp347
sI341
(dp348
sI342
(dp349
sI343
(dp350
sI344
(dp351
sI345
(dp352
sI346
(dp353
sI347
(dp354
sI348
(dp355
sI349
(dp356
sI350
(dp357
sI351
(dp358
sI352
(dp359
sI353
(dp360
sI354
(dp361
sI355
(dp362
sI356
(dp363
sI357
(dp364
sI358
(dp365
sI359
(dp366
sI360
(dp367
sI361
(dp368
sI362
(dp369
sI363
(dp370
sI364
(dp371
sI365
(dp372
sI366
(dp373
sI367
(dp374
sI368
(dp375
sI369
(dp376
sI370
(dp377
sI371
(dp378
sI372
(dp379
sI373
(dp380
sI374
(dp381
sI375
(dp382
sI376
(dp383
sI377
(dp384
sI378
(dp385
sI379
(dp386
sI380
(dp387
sI381
(dp388
sI383
(dp389
sI384
(dp390
sI385
(dp391
sI386
(dp392
sI387
(dp393
sI388
(dp394
sI389
(dp395
sI390
(dp396
sI391
(dp397
sI392
(dp398
sI393
(dp399
sI394
(dp400
sI395
(dp401
sI396
(dp402
sI397
(dp403
sI398
(dp404
sI399
(dp405
sI400
(dp406
sI401
(dp407
sI402
(dp408
sI403
(dp409
sI404
(dp410
sI405
(dp411
sI406
(dp412
sI407
(dp413
sI408
(dp414
sI409
(dp415
sI410
(dp416
sI411
(dp417
sI412
(dp418
sI413
(dp419
sI414
(dp420
sI415
(dp421
sI416
(dp422
sI417
(dp423
sI418
(dp424
sI419
(dp425
sI420
(dp426
sI421
(dp427
sI422
(dp428
sI423
(dp429
sI424
(dp430
sI425
(dp431
sI426
(dp432
sI427
(dp433
sI428
(dp434
sI429
(dp435
sI430
(dp436
sI431
(dp437
sI432
(dp438
sI434
(dp439
sI435
(dp440
sI436
(dp441
sI437
(dp442
sI438
(dp443
sI439
(dp444
sI440
(dp445
sI441
(dp446
sI442
(dp447
sI443
(dp448
sI444
(dp449
sI445
(dp450
sI446
(dp451
sI447
(dp452
sI448
(dp453
sI449
(dp454
sI450
(dp455
sI451
(dp456
sI452
(dp457
sI453
(dp458
sI454
(dp459
sI455
(dp460
sI456
(dp461
sI457
(dp462
sI458
(dp463
sI459
(dp464
sI460
(dp465
sI461
(dp466
sI462
(dp467
sI463
(dp468
sI464
(dp469
sI465
(dp470
sI466
(dp471
sI467
(dp472
sI468
(dp473
sI469
(dp474
sI470
(dp475
sI471
(dp476
sI472
(dp477
sI473
(dp478
sI474
(dp479
sI475
(dp480
sI476
(dp481
sI477
(dp482
sI478
(dp483
sI479
(dp484
sI480
(dp485
sI481
(dp486
sI482
(dp487
sI483
(dp488
sI485
(dp489
sI486
(dp490
sI487
(dp491
sI488
(dp492
sI489
(dp493
sI490
(dp494
sI491
(dp495
sI492
(dp496
sI493
(dp497
sI494
(dp498
sI495
(dp499
sI496
(dp500
sI497
(dp501
sI498
(dp502
sI499
(dp503
sI500
(dp504
sI501
(dp505
sI502
(dp506
sI503
(dp507
sI504
(dp508
sI505
(dp509
sI506
(dp510
sI507
(dp511
sI508
(dp512
sI509
(dp513
ssS'graph'
p514
(dp515
sS'root_graph'
p516
g4
sS'_adj'
p517
(dp518
I0
(dp519
I1
(dp520
sI51
(dp521
ssI1
(dp522
I0
g520
sI2
(dp523
sI52
(dp524
ssI2
(dp525
I1
g523
sI3
(dp526
sI53
(dp527
ssI3
(dp528
I2
g526
sI4
(dp529
sI54
(dp530
ssI4
(dp531
I3
g529
sI5
(dp532
sI55
(dp533
ssI5
(dp534
I56
(dp535
sI4
g532
sI6
(dp536
ssI6
(dp537
I57
(dp538
sI5
g536
sI7
(dp539
ssI7
(dp540
I8
(dp541
sI58
(dp542
sI6
g539
ssI8
(dp543
I9
(dp544
sI59
(dp545
sI7
g541
ssI9
(dp546
I8
g544
sI10
(dp547
sI60
(dp548
ssI10
(dp549
I9
g547
sI11
(dp550
sI61
(dp551
ssI11
(dp552
I10
g550
sI12
(dp553
sI62
(dp554
ssI12
(dp555
I11
g553
sI13
(dp556
sI63
(dp557
ssI13
(dp558
I64
(dp559
sI12
g556
sI14
(dp560
ssI14
(dp561
I65
(dp562
sI13
g560
sI15
(dp563
ssI15
(dp564
I16
(dp565
sI66
(dp566
sI14
g563
ssI16
(dp567
I17
(dp568
sI67
(dp569
sI15
g565
ssI17
(dp570
I16
g568
sI18
(dp571
sI68
(dp572
ssI18
(dp573
I17
g571
sI19
(dp574
sI69
(dp575
ssI19
(dp576
I18
g574
sI20
(dp577
sI70
(dp578
ssI20
(dp579
I19
g577
sI21
(dp580
sI71
(dp581
ssI21
(dp582
I72
(dp583
sI20
g580
sI22
(dp584
ssI22
(dp585
I73
(dp586
sI21
g584
sI23
(dp587
ssI23
(dp588
I24
(dp589
sI74
(dp590
sI22
g587
ssI24
(dp591
I75
(dp592
sI23
g589
ssI26
(dp593
I27
(dp594
sI77
(dp595
ssI27
(dp596
I26
g594
sI28
(dp597
sI78
(dp598
ssI28
(dp599
I27
g597
sI29
(dp600
sI79
(dp601
ssI29
(dp602
I80
(dp603
sI28
g600
sI30
(dp604
ssI30
(dp605
I81
(dp606
sI29
g604
sI31
(dp607
ssI31
(dp608
I32
(dp609
sI82
(dp610
sI30
g607
ssI32
(dp611
I33
(dp612
sI83
(dp613
sI31
g609
ssI33
(dp614
I32
g612
sI34
(dp615
sI84
(dp616
ssI34
(dp617
I33
g615
sI35
(dp618
sI85
(dp619
ssI35
(dp620
I34
g618
sI36
(dp621
sI86
(dp622
ssI36
(dp623
I35
g621
sI37
(dp624
sI87
(dp625
ssI37
(dp626
I88
(dp627
sI36
g624
sI38
(dp628
ssI38
(dp629
I89
(dp630
sI37
g628
sI39
(dp631
ssI39
(dp632
I40
(dp633
sI90
(dp634
sI38
g631
ssI40
(dp635
I41
(dp636
sI91
(dp637
sI39
g633
ssI41
(dp638
I40
g636
sI42
(dp639
sI92
(dp640
ssI42
(dp641
I41
g639
sI43
(dp642
sI93
(dp643
ssI43
(dp644
I42
g642
sI44
(dp645
sI94
(dp646
ssI44
(dp647
I43
g645
sI45
(dp648
sI95
(dp649
ssI45
(dp650
I96
(dp651
sI44
g648
sI46
(dp652
ssI46
(dp653
I97
(dp654
sI45
g652
sI47
(dp655
ssI47
(dp656
I48
(dp657
sI98
(dp658
sI46
g655
ssI48
(dp659
I49
(dp660
sI99
(dp661
sI47
g657
ssI49
(dp662
I48
g660
sI50
(dp663
sI100
(dp664
ssI50
(dp665
I49
g663
sI101
(dp666
ssI51
(dp667
I0
g521
sI52
(dp668
sI102
(dp669
ssI52
(dp670
I1
g524
sI51
g668
sI53
(dp671
sI103
(dp672
ssI53
(dp673
I104
(dp674
sI2
g527
sI52
g671
sI54
(dp675
ssI54
(dp676
I105
(dp677
sI3
g530
sI53
g675
sI55
(dp678
ssI55
(dp679
I56
(dp680
sI106
(dp681
sI4
g533
sI54
g678
ssI56
(dp682
I57
(dp683
sI107
(dp684
sI5
g535
sI55
g680
ssI57
(dp685
I56
g683
sI58
(dp686
sI108
(dp687
sI6
g538
ssI58
(dp688
I57
g686
sI59
(dp689
sI109
(dp690
sI7
g542
ssI59
(dp691
I8
g545
sI58
g689
sI60
(dp692
sI110
(dp693
ssI60
(dp694
I9
g548
sI59
g692
sI61
(dp695
sI111
(dp696
ssI61
(dp697
I112
(dp698
sI10
g551
sI60
g695
sI62
(dp699
ssI62
(dp700
I113
(dp701
sI11
g554
sI61
g699
sI63
(dp702
ssI63
(dp703
I64
(dp704
sI114
(dp705
sI12
g557
sI62
g702
ssI64
(dp706
I65
(dp707
sI115
(dp708
sI13
g559
sI63
g704
ssI65
(dp709
I64
g707
sI66
(dp710
sI116
(dp711
sI14
g562
ssI66
(dp712
I65
g710
sI67
(dp713
sI117
(dp714
sI15
g566
ssI67
(dp715
I16
g569
sI66
g713
sI68
(dp716
sI118
(dp717
ssI68
(dp718
I17
g572
sI67
g716
sI69
(dp719
sI119
(dp720
ssI69
(dp721
I120
(dp722
sI18
g575
sI68
g719
sI70
(dp723
ssI70
(dp724
I121
(dp725
sI19
g578
sI69
g723
sI71
(dp726
ssI71
(dp727
I72
(dp728
sI122
(dp729
sI20
g581
sI70
g726
ssI72
(dp730
I73
(dp731
sI123
(dp732
sI21
g583
sI71
g728
ssI73
(dp733
I72
g731
sI74
(dp734
sI124
(dp735
sI22
g586
ssI74
(dp736
I73
g734
sI75
(dp737
sI125
(dp738
sI23
g590
ssI75
(dp739
I24
g592
sI74
g737
sI126
(dp740
ssI77
(dp741
I128
(dp742
sI26
g595
sI78
(dp743
ssI78
(dp744
I129
(dp745
sI27
g598
sI77
g743
sI79
(dp746
ssI79
(dp747
I80
(dp748
sI130
(dp749
sI28
g601
sI78
g746
ssI80
(dp750
I81
(dp751
sI131
(dp752
sI29
g603
sI79
g748
ssI81
(dp753
I80
g751
sI82
(dp754
sI132
(dp755
sI30
g606
ssI82
(dp756
I81
g754
sI83
(dp757
sI133
(dp758
sI31
g610
ssI83
(dp759
I32
g613
sI82
g757
sI84
(dp760
sI134
(dp761
ssI84
(dp762
I33
g616
sI83
g760
sI85
(dp763
sI135
(dp764
ssI85
(dp765
I136
(dp766
sI34
g619
sI84
g763
sI86
(dp767
ssI86
(dp768
I137
(dp769
sI35
g622
sI85
g767
sI87
(dp770
ssI87
(dp771
I88
(dp772
sI138
(dp773
sI36
g625
sI86
g770
ssI88
(dp774
I89
(dp775
sI139
(dp776
sI37
g627
sI87
g772
ssI89
(dp777
I88
g775
sI90
(dp778
sI140
(dp779
sI38
g630
ssI90
(dp780
I89
g778
sI91
(dp781
sI141
(dp782
sI39
g634
ssI91
(dp783
I40
g637
sI90
g781
sI92
(dp784
sI142
(dp785
ssI92
(dp786
I41
g640
sI91
g784
sI93
(dp787
sI143
(dp788
ssI93
(dp789
I144
(dp790
sI42
g643
sI92
g787
sI94
(dp791
ssI94
(dp792
I145
(dp793
sI43
g646
sI93
g791
sI95
(dp794
ssI95
(dp795
I96
(dp796
sI146
(dp797
sI44
g649
sI94
g794
ssI96
(dp798
I97
(dp799
sI147
(dp800
sI45
g651
sI95
g796
ssI97
(dp801
I96
g799
sI98
(dp802
sI148
(dp803
sI46
g654
ssI98
(dp804
I97
g802
sI99
(dp805
sI149
(dp806
sI47
g658
ssI99
(dp807
I48
g661
sI98
g805
sI100
(dp808
sI150
(dp809
ssI100
(dp810
I49
g664
sI99
g808
sI101
(dp811
sI151
(dp812
ssI101
(dp813
I152
(dp814
sI50
g666
sI100
g811
ssI102
(dp815
I153
(dp816
sI51
g669
sI103
(dp817
ssI103
(dp818
I104
(dp819
sI154
(dp820
sI52
g672
sI102
g817
ssI104
(dp821
I105
(dp822
sI155
(dp823
sI53
g674
sI103
g819
ssI105
(dp824
I104
g822
sI106
(dp825
sI156
(dp826
sI54
g677
ssI106
(dp827
I105
g825
sI107
(dp828
sI157
(dp829
sI55
g681
ssI107
(dp830
I56
g684
sI106
g828
sI108
(dp831
sI158
(dp832
ssI108
(dp833
I57
g687
sI107
g831
sI109
(dp834
sI159
(dp835
ssI109
(dp836
I160
(dp837
sI58
g690
sI108
g834
sI110
(dp838
ssI110
(dp839
I161
(dp840
sI59
g693
sI109
g838
sI111
(dp841
ssI111
(dp842
I112
(dp843
sI162
(dp844
sI60
g696
sI110
g841
ssI112
(dp845
I113
(dp846
sI163
(dp847
sI61
g698
sI111
g843
ssI113
(dp848
I112
g846
sI114
(dp849
sI164
(dp850
sI62
g701
ssI114
(dp851
I113
g849
sI115
(dp852
sI165
(dp853
sI63
g705
ssI115
(dp854
I64
g708
sI114
g852
sI116
(dp855
sI166
(dp856
ssI116
(dp857
I65
g711
sI115
g855
sI117
(dp858
sI167
(dp859
ssI117
(dp860
I168
(dp861
sI66
g714
sI116
g858
sI118
(dp862
ssI118
(dp863
I169
(dp864
sI67
g717
sI117
g862
sI119
(dp865
ssI119
(dp866
I120
(dp867
sI170
(dp868
sI68
g720
sI118
g865
ssI120
(dp869
I121
(dp870
sI171
(dp871
sI69
g722
sI119
g867
ssI121
(dp872
I120
g870
sI122
(dp873
sI172
(dp874
sI70
g725
ssI122
(dp875
I121
g873
sI123
(dp876
sI173
(dp877
sI71
g729
ssI123
(dp878
I72
g732
sI122
g876
sI124
(dp879
sI174
(dp880
ssI124
(dp881
I73
g735
sI123
g879
sI125
(dp882
sI175
(dp883
ssI125
(dp884
I176
(dp885
sI74
g738
sI124
g882
sI126
(dp886
ssI126
(dp887
I177
(dp888
sI75
g740
sI125
g886
ssI128
(dp889
I129
(dp890
sI179
(dp891
sI77
g742
ssI129
(dp892
I128
g890
sI130
(dp893
sI180
(dp894
sI78
g745
ssI130
(dp895
I129
g893
sI131
(dp896
sI181
(dp897
sI79
g749
ssI131
(dp898
I80
g752
sI130
g896
sI132
(dp899
sI182
(dp900
ssI132
(dp901
I81
g755
sI131
g899
sI133
(dp902
sI183
(dp903
ssI133
(dp904
I184
(dp905
sI82
g758
sI132
g902
sI134
(dp906
ssI134
(dp907
I185
(dp908
sI83
g761
sI133
g906
sI135
(dp909
ssI135
(dp910
I136
(dp911
sI186
(dp912
sI84
g764
sI134
g909
ssI136
(dp913
I137
(dp914
sI187
(dp915
sI85
g766
sI135
g911
ssI137
(dp916
I136
g914
sI138
(dp917
sI188
(dp918
sI86
g769
ssI138
(dp919
I137
g917
sI139
(dp920
sI189
(dp921
sI87
g773
ssI139
(dp922
I88
g776
sI138
g920
sI140
(dp923
sI190
(dp924
ssI140
(dp925
I89
g779
sI139
g923
sI141
(dp926
sI191
(dp927
ssI141
(dp928
I192
(dp929
sI90
g782
sI140
g926
sI142
(dp930
ssI142
(dp931
I193
(dp932
sI91
g785
sI141
g930
sI143
(dp933
ssI143
(dp934
I144
(dp935
sI194
(dp936
sI92
g788
sI142
g933
ssI144
(dp937
I145
(dp938
sI195
(dp939
sI93
g790
sI143
g935
ssI145
(dp940
I144
g938
sI146
(dp941
sI196
(dp942
sI94
g793
ssI146
(dp943
I145
g941
sI147
(dp944
sI197
(dp945
sI95
g797
ssI147
(dp946
I96
g800
sI146
g944
sI148
(dp947
sI198
(dp948
ssI148
(dp949
I97
g803
sI147
g947
sI149
(dp950
sI199
(dp951
ssI149
(dp952
I200
(dp953
sI98
g806
sI148
g950
sI150
(dp954
ssI150
(dp955
I201
(dp956
sI99
g809
sI149
g954
sI151
(dp957
ssI151
(dp958
I152
(dp959
sI202
(dp960
sI100
g812
sI150
g957
ssI152
(dp961
I203
(dp962
sI101
g814
sI151
g959
ssI153
(dp963
I154
(dp964
sI204
(dp965
sI102
g816
ssI154
(dp966
I153
g964
sI155
(dp967
sI205
(dp968
sI103
g820
ssI155
(dp969
I104
g823
sI154
g967
sI156
(dp970
sI206
(dp971
ssI156
(dp972
I105
g826
sI155
g970
sI157
(dp973
sI207
(dp974
ssI157
(dp975
I208
(dp976
sI106
g829
sI156
g973
sI158
(dp977
ssI158
(dp978
I209
(dp979
sI107
g832
sI157
g977
sI159
(dp980
ssI159
(dp981
I160
(dp982
sI210
(dp983
sI108
g835
sI158
g980
ssI160
(dp984
I161
(dp985
sI211
(dp986
sI109
g837
sI159
g982
ssI161
(dp987
I160
g985
sI162
(dp988
sI212
(dp989
sI110
g840
ssI162
(dp990
I161
g988
sI163
(dp991
sI213
(dp992
sI111
g844
ssI163
(dp993
I112
g847
sI162
g991
sI164
(dp994
sI214
(dp995
ssI164
(dp996
I113
g850
sI163
g994
sI165
(dp997
sI215
(dp998
ssI165
(dp999
I216
(dp1000
sI114
g853
sI164
g997
sI166
(dp1001
ssI166
(dp1002
I217
(dp1003
sI115
g856
sI165
g1001
sI167
(dp1004
ssI167
(dp1005
I168
(dp1006
sI218
(dp1007
sI116
g859
sI166
g1004
ssI168
(dp1008
I169
(dp1009
sI219
(dp1010
sI117
g861
sI167
g1006
ssI169
(dp1011
I168
g1009
sI170
(dp1012
sI220
(dp1013
sI118
g864
ssI170
(dp1014
I169
g1012
sI171
(dp1015
sI221
(dp1016
sI119
g868
ssI171
(dp1017
I120
g871
sI170
g1015
sI172
(dp1018
sI222
(dp1019
ssI172
(dp1020
I121
g874
sI171
g1018
sI173
(dp1021
sI223
(dp1022
ssI173
(dp1023
I224
(dp1024
sI122
g877
sI172
g1021
sI174
(dp1025
ssI174
(dp1026
I225
(dp1027
sI123
g880
sI173
g1025
sI175
(dp1028
ssI175
(dp1029
I176
(dp1030
sI226
(dp1031
sI124
g883
sI174
g1028
ssI176
(dp1032
I177
(dp1033
sI227
(dp1034
sI125
g885
sI175
g1030
ssI177
(dp1035
I176
g1033
sI228
(dp1036
sI126
g888
ssI179
(dp1037
I128
g891
sI180
(dp1038
sI230
(dp1039
ssI180
(dp1040
I129
g894
sI179
g1038
sI181
(dp1041
sI231
(dp1042
ssI181
(dp1043
I232
(dp1044
sI130
g897
sI180
g1041
sI182
(dp1045
ssI182
(dp1046
I233
(dp1047
sI131
g900
sI181
g1045
sI183
(dp1048
ssI183
(dp1049
I184
(dp1050
sI234
(dp1051
sI132
g903
sI182
g1048
ssI184
(dp1052
I185
(dp1053
sI235
(dp1054
sI133
g905
sI183
g1050
ssI185
(dp1055
I184
g1053
sI186
(dp1056
sI236
(dp1057
sI134
g908
ssI186
(dp1058
I185
g1056
sI187
(dp1059
sI237
(dp1060
sI135
g912
ssI187
(dp1061
I136
g915
sI186
g1059
sI188
(dp1062
sI238
(dp1063
ssI188
(dp1064
I137
g918
sI187
g1062
sI189
(dp1065
sI239
(dp1066
ssI189
(dp1067
I240
(dp1068
sI138
g921
sI188
g1065
sI190
(dp1069
ssI190
(dp1070
I241
(dp1071
sI139
g924
sI189
g1069
sI191
(dp1072
ssI191
(dp1073
I192
(dp1074
sI242
(dp1075
sI140
g927
sI190
g1072
ssI192
(dp1076
I193
(dp1077
sI243
(dp1078
sI141
g929
sI191
g1074
ssI193
(dp1079
I192
g1077
sI194
(dp1080
sI244
(dp1081
sI142
g932
ssI194
(dp1082
I193
g1080
sI195
(dp1083
sI245
(dp1084
sI143
g936
ssI195
(dp1085
I144
g939
sI194
g1083
sI196
(dp1086
sI246
(dp1087
ssI196
(dp1088
I145
g942
sI195
g1086
sI197
(dp1089
sI247
(dp1090
ssI197
(dp1091
I248
(dp1092
sI146
g945
sI196
g1089
sI198
(dp1093
ssI198
(dp1094
I249
(dp1095
sI147
g948
sI197
g1093
sI199
(dp1096
ssI199
(dp1097
I200
(dp1098
sI250
(dp1099
sI148
g951
sI198
g1096
ssI200
(dp1100
I201
(dp1101
sI251
(dp1102
sI149
g953
sI199
g1098
ssI201
(dp1103
I200
g1101
sI202
(dp1104
sI252
(dp1105
sI150
g956
ssI202
(dp1106
I201
g1104
sI203
(dp1107
sI253
(dp1108
sI151
g960
ssI203
(dp1109
I152
g962
sI202
g1107
sI254
(dp1110
ssI204
(dp1111
I153
g965
sI205
(dp1112
sI255
(dp1113
ssI205
(dp1114
I256
(dp1115
sI154
g968
sI204
g1112
sI206
(dp1116
ssI206
(dp1117
I257
(dp1118
sI155
g971
sI205
g1116
sI207
(dp1119
ssI207
(dp1120
I208
(dp1121
sI258
(dp1122
sI156
g974
sI206
g1119
ssI208
(dp1123
I209
(dp1124
sI259
(dp1125
sI157
g976
sI207
g1121
ssI209
(dp1126
I208
g1124
sI210
(dp1127
sI260
(dp1128
sI158
g979
ssI210
(dp1129
I209
g1127
sI211
(dp1130
sI261
(dp1131
sI159
g983
ssI211
(dp1132
I160
g986
sI210
g1130
sI212
(dp1133
sI262
(dp1134
ssI212
(dp1135
I161
g989
sI211
g1133
sI213
(dp1136
sI263
(dp1137
ssI213
(dp1138
I264
(dp1139
sI162
g992
sI212
g1136
sI214
(dp1140
ssI214
(dp1141
I265
(dp1142
sI163
g995
sI213
g1140
sI215
(dp1143
ssI215
(dp1144
I216
(dp1145
sI266
(dp1146
sI164
g998
sI214
g1143
ssI216
(dp1147
I217
(dp1148
sI267
(dp1149
sI165
g1000
sI215
g1145
ssI217
(dp1150
I216
g1148
sI218
(dp1151
sI268
(dp1152
sI166
g1003
ssI218
(dp1153
I217
g1151
sI219
(dp1154
sI269
(dp1155
sI167
g1007
ssI219
(dp1156
I168
g1010
sI218
g1154
sI220
(dp1157
sI270
(dp1158
ssI220
(dp1159
I169
g1013
sI219
g1157
sI221
(dp1160
sI271
(dp1161
ssI221
(dp1162
I272
(dp1163
sI170
g1016
sI220
g1160
sI222
(dp1164
ssI222
(dp1165
I273
(dp1166
sI171
g1019
sI221
g1164
sI223
(dp1167
ssI223
(dp1168
I224
(dp1169
sI274
(dp1170
sI172
g1022
sI222
g1167
ssI224
(dp1171
I225
(dp1172
sI275
(dp1173
sI173
g1024
sI223
g1169
ssI225
(dp1174
I224
g1172
sI226
(dp1175
sI276
(dp1176
sI174
g1027
ssI226
(dp1177
I225
g1175
sI227
(dp1178
sI277
(dp1179
sI175
g1031
ssI227
(dp1180
I176
g1034
sI226
g1178
sI228
(dp1181
sI278
(dp1182
ssI228
(dp1183
I177
g1036
sI227
g1181
sI229
(dp1184
sI279
(dp1185
ssI229
(dp1186
I280
(dp1187
sI228
g1184
sI230
(dp1188
ssI230
(dp1189
I281
(dp1190
sI179
g1039
sI229
g1188
sI231
(dp1191
ssI231
(dp1192
I232
(dp1193
sI282
(dp1194
sI180
g1042
sI230
g1191
ssI232
(dp1195
I233
(dp1196
sI283
(dp1197
sI181
g1044
sI231
g1193
ssI233
(dp1198
I232
g1196
sI234
(dp1199
sI284
(dp1200
sI182
g1047
ssI234
(dp1201
I233
g1199
sI235
(dp1202
sI285
(dp1203
sI183
g1051
ssI235
(dp1204
I184
g1054
sI234
g1202
sI236
(dp1205
sI286
(dp1206
ssI236
(dp1207
I185
g1057
sI235
g1205
sI237
(dp1208
sI287
(dp1209
ssI237
(dp1210
I288
(dp1211
sI186
g1060
sI236
g1208
sI238
(dp1212
ssI238
(dp1213
I289
(dp1214
sI187
g1063
sI237
g1212
sI239
(dp1215
ssI239
(dp1216
I240
(dp1217
sI290
(dp1218
sI188
g1066
sI238
g1215
ssI240
(dp1219
I241
(dp1220
sI291
(dp1221
sI189
g1068
sI239
g1217
ssI241
(dp1222
I240
g1220
sI242
(dp1223
sI292
(dp1224
sI190
g1071
ssI242
(dp1225
I241
g1223
sI243
(dp1226
sI293
(dp1227
sI191
g1075
ssI243
(dp1228
I192
g1078
sI242
g1226
sI244
(dp1229
sI294
(dp1230
ssI244
(dp1231
I193
g1081
sI243
g1229
sI245
(dp1232
sI295
(dp1233
ssI245
(dp1234
I296
(dp1235
sI194
g1084
sI244
g1232
sI246
(dp1236
ssI246
(dp1237
I297
(dp1238
sI195
g1087
sI245
g1236
sI247
(dp1239
ssI247
(dp1240
I248
(dp1241
sI298
(dp1242
sI196
g1090
sI246
g1239
ssI248
(dp1243
I249
(dp1244
sI299
(dp1245
sI197
g1092
sI247
g1241
ssI249
(dp1246
I248
g1244
sI250
(dp1247
sI300
(dp1248
sI198
g1095
ssI250
(dp1249
I249
g1247
sI251
(dp1250
sI301
(dp1251
sI199
g1099
ssI251
(dp1252
I200
g1102
sI250
g1250
sI252
(dp1253
sI302
(dp1254
ssI252
(dp1255
I201
g1105
sI251
g1253
sI253
(dp1256
sI303
(dp1257
ssI253
(dp1258
I304
(dp1259
sI202
g1108
sI252
g1256
sI254
(dp1260
ssI254
(dp1261
I305
(dp1262
sI203
g1110
sI253
g1260
ssI255
(dp1263
I256
(dp1264
sI306
(dp1265
sI204
g1113
ssI256
(dp1266
I257
(dp1267
sI307
(dp1268
sI205
g1115
sI255
g1264
ssI257
(dp1269
I256
g1267
sI258
(dp1270
sI308
(dp1271
sI206
g1118
ssI258
(dp1272
I257
g1270
sI259
(dp1273
sI309
(dp1274
sI207
g1122
ssI259
(dp1275
I208
g1125
sI258
g1273
sI260
(dp1276
sI310
(dp1277
ssI260
(dp1278
I209
g1128
sI259
g1276
sI261
(dp1279
sI311
(dp1280
ssI261
(dp1281
I312
(dp1282
sI210
g1131
sI260
g1279
sI262
(dp1283
ssI262
(dp1284
I313
(dp1285
sI211
g1134
sI261
g1283
sI263
(dp1286
ssI263
(dp1287
I264
(dp1288
sI314
(dp1289
sI212
g1137
sI262
g1286
ssI264
(dp1290
I265
(dp1291
sI315
(dp1292
sI213
g1139
sI263
g1288
ssI265
(dp1293
I264
g1291
sI266
(dp1294
sI316
(dp1295
sI214
g1142
ssI266
(dp1296
I265
g1294
sI267
(dp1297
sI317
(dp1298
sI215
g1146
ssI267
(dp1299
I216
g1149
sI266
g1297
sI268
(dp1300
sI318
(dp1301
ssI268
(dp1302
I217
g1152
sI267
g1300
sI269
(dp1303
sI319
(dp1304
ssI269
(dp1305
I320
(dp1306
sI218
g1155
sI268
g1303
sI270
(dp1307
ssI270
(dp1308
I321
(dp1309
sI219
g1158
sI269
g1307
sI271
(dp1310
ssI271
(dp1311
I272
(dp1312
sI322
(dp1313
sI220
g1161
sI270
g1310
ssI272
(dp1314
I273
(dp1315
sI323
(dp1316
sI221
g1163
sI271
g1312
ssI273
(dp1317
I272
g1315
sI274
(dp1318
sI324
(dp1319
sI222
g1166
ssI274
(dp1320
I273
g1318
sI275
(dp1321
sI325
(dp1322
sI223
g1170
ssI275
(dp1323
I224
g1173
sI274
g1321
sI276
(dp1324
sI326
(dp1325
ssI276
(dp1326
I225
g1176
sI275
g1324
sI277
(dp1327
sI327
(dp1328
ssI277
(dp1329
I328
(dp1330
sI226
g1179
sI276
g1327
sI278
(dp1331
ssI278
(dp1332
I329
(dp1333
sI227
g1182
sI277
g1331
sI279
(dp1334
ssI279
(dp1335
I280
(dp1336
sI330
(dp1337
sI228
g1185
sI278
g1334
ssI280
(dp1338
I281
(dp1339
sI229
g1187
sI279
g1336
ssI281
(dp1340
I280
g1339
sI282
(dp1341
sI332
(dp1342
sI230
g1190
ssI282
(dp1343
I281
g1341
sI283
(dp1344
sI333
(dp1345
sI231
g1194
ssI283
(dp1346
I232
g1197
sI282
g1344
sI284
(dp1347
sI334
(dp1348
ssI284
(dp1349
I233
g1200
sI283
g1347
sI285
(dp1350
sI335
(dp1351
ssI285
(dp1352
I336
(dp1353
sI234
g1203
sI284
g1350
sI286
(dp1354
ssI286
(dp1355
I337
(dp1356
sI235
g1206
sI285
g1354
sI287
(dp1357
ssI287
(dp1358
I288
(dp1359
sI338
(dp1360
sI236
g1209
sI286
g1357
ssI288
(dp1361
I289
(dp1362
sI339
(dp1363
sI237
g1211
sI287
g1359
ssI289
(dp1364
I288
g1362
sI290
(dp1365
sI340
(dp1366
sI238
g1214
ssI290
(dp1367
I289
g1365
sI291
(dp1368
sI341
(dp1369
sI239
g1218
ssI291
(dp1370
I240
g1221
sI290
g1368
sI292
(dp1371
sI342
(dp1372
ssI292
(dp1373
I241
g1224
sI291
g1371
sI293
(dp1374
sI343
(dp1375
ssI293
(dp1376
I344
(dp1377
sI242
g1227
sI292
g1374
sI294
(dp1378
ssI294
(dp1379
I345
(dp1380
sI243
g1230
sI293
g1378
sI295
(dp1381
ssI295
(dp1382
I296
(dp1383
sI346
(dp1384
sI244
g1233
sI294
g1381
ssI296
(dp1385
I297
(dp1386
sI347
(dp1387
sI245
g1235
sI295
g1383
ssI297
(dp1388
I296
g1386
sI298
(dp1389
sI348
(dp1390
sI246
g1238
ssI298
(dp1391
I297
g1389
sI299
(dp1392
sI349
(dp1393
sI247
g1242
ssI299
(dp1394
I248
g1245
sI298
g1392
sI300
(dp1395
sI350
(dp1396
ssI300
(dp1397
I249
g1248
sI299
g1395
sI301
(dp1398
sI351
(dp1399
ssI301
(dp1400
I352
(dp1401
sI250
g1251
sI300
g1398
sI302
(dp1402
ssI302
(dp1403
I353
(dp1404
sI251
g1254
sI301
g1402
sI303
(dp1405
ssI303
(dp1406
I304
(dp1407
sI354
(dp1408
sI252
g1257
sI302
g1405
ssI304
(dp1409
I305
(dp1410
sI355
(dp1411
sI253
g1259
sI303
g1407
ssI305
(dp1412
I304
g1410
sI356
(dp1413
sI254
g1262
ssI306
(dp1414
I307
(dp1415
sI357
(dp1416
sI255
g1265
ssI307
(dp1417
I256
g1268
sI306
g1415
sI308
(dp1418
sI358
(dp1419
ssI308
(dp1420
I257
g1271
sI307
g1418
sI309
(dp1421
sI359
(dp1422
ssI309
(dp1423
I360
(dp1424
sI258
g1274
sI308
g1421
sI310
(dp1425
ssI310
(dp1426
I361
(dp1427
sI259
g1277
sI309
g1425
sI311
(dp1428
ssI311
(dp1429
I312
(dp1430
sI362
(dp1431
sI260
g1280
sI310
g1428
ssI312
(dp1432
I313
(dp1433
sI363
(dp1434
sI261
g1282
sI311
g1430
ssI313
(dp1435
I312
g1433
sI314
(dp1436
sI364
(dp1437
sI262
g1285
ssI314
(dp1438
I313
g1436
sI315
(dp1439
sI365
(dp1440
sI263
g1289
ssI315
(dp1441
I264
g1292
sI314
g1439
sI316
(dp1442
sI366
(dp1443
ssI316
(dp1444
I265
g1295
sI315
g1442
sI317
(dp1445
sI367
(dp1446
ssI317
(dp1447
I368
(dp1448
sI266
g1298
sI316
g1445
sI318
(dp1449
ssI318
(dp1450
I369
(dp1451
sI267
g1301
sI317
g1449
sI319
(dp1452
ssI319
(dp1453
I320
(dp1454
sI370
(dp1455
sI268
g1304
sI318
g1452
ssI320
(dp1456
I321
(dp1457
sI371
(dp1458
sI269
g1306
sI319
g1454
ssI321
(dp1459
I320
g1457
sI322
(dp1460
sI372
(dp1461
sI270
g1309
ssI322
(dp1462
I321
g1460
sI323
(dp1463
sI373
(dp1464
sI271
g1313
ssI323
(dp1465
I272
g1316
sI322
g1463
sI324
(dp1466
sI374
(dp1467
ssI324
(dp1468
I273
g1319
sI323
g1466
sI325
(dp1469
sI375
(dp1470
ssI325
(dp1471
I376
(dp1472
sI274
g1322
sI324
g1469
sI326
(dp1473
ssI326
(dp1474
I377
(dp1475
sI275
g1325
sI325
g1473
sI327
(dp1476
ssI327
(dp1477
I328
(dp1478
sI378
(dp1479
sI276
g1328
sI326
g1476
ssI328
(dp1480
I329
(dp1481
sI379
(dp1482
sI277
g1330
sI327
g1478
ssI329
(dp1483
I328
g1481
sI330
(dp1484
sI380
(dp1485
sI278
g1333
ssI330
(dp1486
I329
g1484
sI381
(dp1487
sI279
g1337
ssI332
(dp1488
I281
g1342
sI333
(dp1489
sI383
(dp1490
ssI333
(dp1491
I384
(dp1492
sI282
g1345
sI332
g1489
sI334
(dp1493
ssI334
(dp1494
I385
(dp1495
sI283
g1348
sI333
g1493
sI335
(dp1496
ssI335
(dp1497
I336
(dp1498
sI386
(dp1499
sI284
g1351
sI334
g1496
ssI336
(dp1500
I337
(dp1501
sI387
(dp1502
sI285
g1353
sI335
g1498
ssI337
(dp1503
I336
g1501
sI338
(dp1504
sI388
(dp1505
sI286
g1356
ssI338
(dp1506
I337
g1504
sI339
(dp1507
sI389
(dp1508
sI287
g1360
ssI339
(dp1509
I288
g1363
sI338
g1507
sI340
(dp1510
sI390
(dp1511
ssI340
(dp1512
I289
g1366
sI339
g1510
sI341
(dp1513
sI391
(dp1514
ssI341
(dp1515
I392
(dp1516
sI290
g1369
sI340
g1513
sI342
(dp1517
ssI342
(dp1518
I393
(dp1519
sI291
g1372
sI341
g1517
sI343
(dp1520
ssI343
(dp1521
I344
(dp1522
sI394
(dp1523
sI292
g1375
sI342
g1520
ssI344
(dp1524
I345
(dp1525
sI395
(dp1526
sI293
g1377
sI343
g1522
ssI345
(dp1527
I344
g1525
sI346
(dp1528
sI396
(dp1529
sI294
g1380
ssI346
(dp1530
I345
g1528
sI347
(dp1531
sI397
(dp1532
sI295
g1384
ssI347
(dp1533
I296
g1387
sI346
g1531
sI348
(dp1534
sI398
(dp1535
ssI348
(dp1536
I297
g1390
sI347
g1534
sI349
(dp1537
sI399
(dp1538
ssI349
(dp1539
I400
(dp1540
sI298
g1393
sI348
g1537
sI350
(dp1541
ssI350
(dp1542
I401
(dp1543
sI299
g1396
sI349
g1541
sI351
(dp1544
ssI351
(dp1545
I352
(dp1546
sI402
(dp1547
sI300
g1399
sI350
g1544
ssI352
(dp1548
I353
(dp1549
sI403
(dp1550
sI301
g1401
sI351
g1546
ssI353
(dp1551
I352
g1549
sI354
(dp1552
sI404
(dp1553
sI302
g1404
ssI354
(dp1554
I353
g1552
sI355
(dp1555
sI405
(dp1556
sI303
g1408
ssI355
(dp1557
I304
g1411
sI354
g1555
sI356
(dp1558
sI406
(dp1559
ssI356
(dp1560
I305
g1413
sI355
g1558
sI407
(dp1561
ssI357
(dp1562
I408
(dp1563
sI306
g1416
sI358
(dp1564
ssI358
(dp1565
I409
(dp1566
sI307
g1419
sI357
g1564
sI359
(dp1567
ssI359
(dp1568
I360
(dp1569
sI410
(dp1570
sI308
g1422
sI358
g1567
ssI360
(dp1571
I361
(dp1572
sI411
(dp1573
sI309
g1424
sI359
g1569
ssI361
(dp1574
I360
g1572
sI362
(dp1575
sI412
(dp1576
sI310
g1427
ssI362
(dp1577
I361
g1575
sI363
(dp1578
sI413
(dp1579
sI311
g1431
ssI363
(dp1580
I312
g1434
sI362
g1578
sI364
(dp1581
sI414
(dp1582
ssI364
(dp1583
I313
g1437
sI363
g1581
sI365
(dp1584
sI415
(dp1585
ssI365
(dp1586
I416
(dp1587
sI314
g1440
sI364
g1584
sI366
(dp1588
ssI366
(dp1589
I417
(dp1590
sI315
g1443
sI365
g1588
sI367
(dp1591
ssI367
(dp1592
I368
(dp1593
sI418
(dp1594
sI316
g1446
sI366
g1591
ssI368
(dp1595
I369
(dp1596
sI419
(dp1597
sI317
g1448
sI367
g1593
ssI369
(dp1598
I368
g1596
sI370
(dp1599
sI420
(dp1600
sI318
g1451
ssI370
(dp1601
I369
g1599
sI371
(dp1602
sI421
(dp1603
sI319
g1455
ssI371
(dp1604
I320
g1458
sI370
g1602
sI372
(dp1605
sI422
(dp1606
ssI372
(dp1607
I321
g1461
sI371
g1605
sI373
(dp1608
sI423
(dp1609
ssI373
(dp1610
I424
(dp1611
sI322
g1464
sI372
g1608
sI374
(dp1612
ssI374
(dp1613
I425
(dp1614
sI323
g1467
sI373
g1612
sI375
(dp1615
ssI375
(dp1616
I376
(dp1617
sI426
(dp1618
sI324
g1470
sI374
g1615
ssI376
(dp1619
I377
(dp1620
sI427
(dp1621
sI325
g1472
sI375
g1617
ssI377
(dp1622
I376
g1620
sI378
(dp1623
sI428
(dp1624
sI326
g1475
ssI378
(dp1625
I377
g1623
sI379
(dp1626
sI429
(dp1627
sI327
g1479
ssI379
(dp1628
I328
g1482
sI378
g1626
sI380
(dp1629
sI430
(dp1630
ssI380
(dp1631
I329
g1485
sI379
g1629
sI381
(dp1632
sI431
(dp1633
ssI381
(dp1634
I432
(dp1635
sI330
g1487
sI380
g1632
ssI383
(dp1636
I384
(dp1637
sI434
(dp1638
sI332
g1490
ssI384
(dp1639
I385
(dp1640
sI435
(dp1641
sI333
g1492
sI383
g1637
ssI385
(dp1642
I384
g1640
sI386
(dp1643
sI436
(dp1644
sI334
g1495
ssI386
(dp1645
I385
g1643
sI387
(dp1646
sI437
(dp1647
sI335
g1499
ssI387
(dp1648
I336
g1502
sI386
g1646
sI388
(dp1649
sI438
(dp1650
ssI388
(dp1651
I337
g1505
sI387
g1649
sI389
(dp1652
sI439
(dp1653
ssI389
(dp1654
I440
(dp1655
sI338
g1508
sI388
g1652
sI390
(dp1656
ssI390
(dp1657
I441
(dp1658
sI339
g1511
sI389
g1656
sI391
(dp1659
ssI391
(dp1660
I392
(dp1661
sI442
(dp1662
sI340
g1514
sI390
g1659
ssI392
(dp1663
I393
(dp1664
sI443
(dp1665
sI341
g1516
sI391
g1661
ssI393
(dp1666
I392
g1664
sI394
(dp1667
sI444
(dp1668
sI342
g1519
ssI394
(dp1669
I393
g1667
sI395
(dp1670
sI445
(dp1671
sI343
g1523
ssI395
(dp1672
I344
g1526
sI394
g1670
sI396
(dp1673
sI446
(dp1674
ssI396
(dp1675
I345
g1529
sI395
g1673
sI397
(dp1676
sI447
(dp1677
ssI397
(dp1678
I448
(dp1679
sI346
g1532
sI396
g1676
sI398
(dp1680
ssI398
(dp1681
I449
(dp1682
sI347
g1535
sI397
g1680
sI399
(dp1683
ssI399
(dp1684
I400
(dp1685
sI450
(dp1686
sI348
g1538
sI398
g1683
ssI400
(dp1687
I401
(dp1688
sI451
(dp1689
sI349
g1540
sI399
g1685
ssI401
(dp1690
I400
g1688
sI402
(dp1691
sI452
(dp1692
sI350
g1543
ssI402
(dp1693
I401
g1691
sI403
(dp1694
sI453
(dp1695
sI351
g1547
ssI403
(dp1696
I352
g1550
sI402
g1694
sI404
(dp1697
sI454
(dp1698
ssI404
(dp1699
I353
g1553
sI403
g1697
sI405
(dp1700
sI455
(dp1701
ssI405
(dp1702
I456
(dp1703
sI354
g1556
sI404
g1700
sI406
(dp1704
ssI406
(dp1705
I457
(dp1706
sI355
g1559
sI405
g1704
sI407
(dp1707
ssI407
(dp1708
I458
(dp1709
sI356
g1561
sI406
g1707
ssI408
(dp1710
I409
(dp1711
sI459
(dp1712
sI357
g1563
ssI409
(dp1713
I408
g1711
sI410
(dp1714
sI460
(dp1715
sI358
g1566
ssI410
(dp1716
I409
g1714
sI411
(dp1717
sI461
(dp1718
sI359
g1570
ssI411
(dp1719
I360
g1573
sI410
g1717
sI412
(dp1720
sI462
(dp1721
ssI412
(dp1722
I361
g1576
sI411
g1720
sI413
(dp1723
sI463
(dp1724
ssI413
(dp1725
I464
(dp1726
sI362
g1579
sI412
g1723
sI414
(dp1727
ssI414
(dp1728
I465
(dp1729
sI363
g1582
sI413
g1727
sI415
(dp1730
ssI415
(dp1731
I416
(dp1732
sI466
(dp1733
sI364
g1585
sI414
g1730
ssI416
(dp1734
I417
(dp1735
sI467
(dp1736
sI365
g1587
sI415
g1732
ssI417
(dp1737
I416
g1735
sI418
(dp1738
sI468
(dp1739
sI366
g1590
ssI418
(dp1740
I417
g1738
sI419
(dp1741
sI469
(dp1742
sI367
g1594
ssI419
(dp1743
I368
g1597
sI418
g1741
sI420
(dp1744
sI470
(dp1745
ssI420
(dp1746
I369
g1600
sI419
g1744
sI421
(dp1747
sI471
(dp1748
ssI421
(dp1749
I472
(dp1750
sI370
g1603
sI420
g1747
sI422
(dp1751
ssI422
(dp1752
I473
(dp1753
sI371
g1606
sI421
g1751
sI423
(dp1754
ssI423
(dp1755
I424
(dp1756
sI474
(dp1757
sI372
g1609
sI422
g1754
ssI424
(dp1758
I425
(dp1759
sI475
(dp1760
sI373
g1611
sI423
g1756
ssI425
(dp1761
I424
g1759
sI426
(dp1762
sI476
(dp1763
sI374
g1614
ssI426
(dp1764
I425
g1762
sI427
(dp1765
sI477
(dp1766
sI375
g1618
ssI427
(dp1767
I376
g1621
sI426
g1765
sI428
(dp1768
sI478
(dp1769
ssI428
(dp1770
I377
g1624
sI427
g1768
sI429
(dp1771
sI479
(dp1772
ssI429
(dp1773
I480
(dp1774
sI378
g1627
sI428
g1771
sI430
(dp1775
ssI430
(dp1776
I481
(dp1777
sI379
g1630
sI429
g1775
sI431
(dp1778
ssI431
(dp1779
I432
(dp1780
sI482
(dp1781
sI380
g1633
sI430
g1778
ssI432
(dp1782
I483
(dp1783
sI381
g1635
sI431
g1780
ssI434
(dp1784
I435
(dp1785
sI485
(dp1786
sI383
g1638
ssI435
(dp1787
I384
g1641
sI434
g1785
sI436
(dp1788
sI486
(dp1789
ssI436
(dp1790
I385
g1644
sI435
g1788
sI437
(dp1791
sI487
(dp1792
ssI437
(dp1793
I488
(dp1794
sI386
g1647
sI436
g1791
sI438
(dp1795
ssI438
(dp1796
I489
(dp1797
sI387
g1650
sI437
g1795
sI439
(dp1798
ssI439
(dp1799
I440
(dp1800
sI490
(dp1801
sI388
g1653
sI438
g1798
ssI440
(dp1802
I441
(dp1803
sI491
(dp1804
sI389
g1655
sI439
g1800
ssI441
(dp1805
I440
g1803
sI442
(dp1806
sI492
(dp1807
sI390
g1658
ssI442
(dp1808
I441
g1806
sI443
(dp1809
sI493
(dp1810
sI391
g1662
ssI443
(dp1811
I392
g1665
sI442
g1809
sI444
(dp1812
sI494
(dp1813
ssI444
(dp1814
I393
g1668
sI443
g1812
sI445
(dp1815
sI495
(dp1816
ssI445
(dp1817
I496
(dp1818
sI394
g1671
sI444
g1815
sI446
(dp1819
ssI446
(dp1820
I497
(dp1821
sI395
g1674
sI445
g1819
sI447
(dp1822
ssI447
(dp1823
I448
(dp1824
sI498
(dp1825
sI396
g1677
sI446
g1822
ssI448
(dp1826
I449
(dp1827
sI499
(dp1828
sI397
g1679
sI447
g1824
ssI449
(dp1829
I448
g1827
sI450
(dp1830
sI500
(dp1831
sI398
g1682
ssI450
(dp1832
I449
g1830
sI451
(dp1833
sI501
(dp1834
sI399
g1686
ssI451
(dp1835
I400
g1689
sI450
g1833
sI452
(dp1836
sI502
(dp1837
ssI452
(dp1838
I401
g1692
sI451
g1836
sI453
(dp1839
sI503
(dp1840
ssI453
(dp1841
I504
(dp1842
sI402
g1695
sI452
g1839
sI454
(dp1843
ssI454
(dp1844
I505
(dp1845
sI403
g1698
sI453
g1843
sI455
(dp1846
ssI455
(dp1847
I456
(dp1848
sI506
(dp1849
sI404
g1701
sI454
g1846
ssI456
(dp1850
I457
(dp1851
sI507
(dp1852
sI405
g1703
sI455
g1848
ssI457
(dp1853
I456
g1851
sI458
(dp1854
sI508
(dp1855
sI406
g1706
ssI458
(dp1856
I457
g1854
sI509
(dp1857
sI407
g1709
ssI459
(dp1858
I408
g1712
sI460
(dp1859
ssI460
(dp1860
I409
g1715
sI459
g1859
sI461
(dp1861
ssI461
(dp1862
I410
g1718
sI460
g1861
sI462
(dp1863
ssI462
(dp1864
I411
g1721
sI461
g1863
sI463
(dp1865
ssI463
(dp1866
I464
(dp1867
sI412
g1724
sI462
g1865
ssI464
(dp1868
I465
(dp1869
sI413
g1726
sI463
g1867
ssI465
(dp1870
I464
g1869
sI466
(dp1871
sI414
g1729
ssI466
(dp1872
I465
g1871
sI467
(dp1873
sI415
g1733
ssI467
(dp1874
I416
g1736
sI466
g1873
sI468
(dp1875
ssI468
(dp1876
I417
g1739
sI467
g1875
sI469
(dp1877
ssI469
(dp1878
I418
g1742
sI468
g1877
sI470
(dp1879
ssI470
(dp1880
I419
g1745
sI469
g1879
sI471
(dp1881
ssI471
(dp1882
I472
(dp1883
sI420
g1748
sI470
g1881
ssI472
(dp1884
I473
(dp1885
sI421
g1750
sI471
g1883
ssI473
(dp1886
I472
g1885
sI474
(dp1887
sI422
g1753
ssI474
(dp1888
I473
g1887
sI475
(dp1889
sI423
g1757
ssI475
(dp1890
I424
g1760
sI474
g1889
sI476
(dp1891
ssI476
(dp1892
I425
g1763
sI475
g1891
sI477
(dp1893
ssI477
(dp1894
I426
g1766
sI476
g1893
sI478
(dp1895
ssI478
(dp1896
I427
g1769
sI477
g1895
sI479
(dp1897
ssI479
(dp1898
I480
(dp1899
sI428
g1772
sI478
g1897
ssI480
(dp1900
I481
(dp1901
sI429
g1774
sI479
g1899
ssI481
(dp1902
I480
g1901
sI482
(dp1903
sI430
g1777
ssI482
(dp1904
I481
g1903
sI483
(dp1905
sI431
g1781
ssI483
(dp1906
I432
g1783
sI482
g1905
ssI485
(dp1907
I434
g1786
sI486
(dp1908
ssI486
(dp1909
I435
g1789
sI485
g1908
sI487
(dp1910
ssI487
(dp1911
I488
(dp1912
sI436
g1792
sI486
g1910
ssI488
(dp1913
I489
(dp1914
sI437
g1794
sI487
g1912
ssI489
(dp1915
I488
g1914
sI490
(dp1916
sI438
g1797
ssI490
(dp1917
I489
g1916
sI491
(dp1918
sI439
g1801
ssI491
(dp1919
I440
g1804
sI490
g1918
sI492
(dp1920
ssI492
(dp1921
I441
g1807
sI491
g1920
sI493
(dp1922
ssI493
(dp1923
I442
g1810
sI492
g1922
sI494
(dp1924
ssI494
(dp1925
I443
g1813
sI493
g1924
sI495
(dp1926
ssI495
(dp1927
I496
(dp1928
sI444
g1816
sI494
g1926
ssI496
(dp1929
I497
(dp1930
sI445
g1818
sI495
g1928
ssI497
(dp1931
I496
g1930
sI498
(dp1932
sI446
g1821
ssI498
(dp1933
I497
g1932
sI499
(dp1934
sI447
g1825
ssI499
(dp1935
I448
g1828
sI498
g1934
sI500
(dp1936
ssI500
(dp1937
I449
g1831
sI499
g1936
sI501
(dp1938
ssI501
(dp1939
I450
g1834
sI500
g1938
sI502
(dp1940
ssI502
(dp1941
I451
g1837
sI501
g1940
sI503
(dp1942
ssI503
(dp1943
I504
(dp1944
sI452
g1840
sI502
g1942
ssI504
(dp1945
I505
(dp1946
sI453
g1842
sI503
g1944
ssI505
(dp1947
I504
g1946
sI506
(dp1948
sI454
g1845
ssI506
(dp1949
I505
g1948
sI507
(dp1950
sI455
g1849
ssI507
(dp1951
I456
g1852
sI506
g1950
sI508
(dp1952
ssI508
(dp1953
I457
g1855
sI507
g1952
sI509
(dp1954
ssI509
(dp1955
I458
g1857
sI508
g1954
sssS'adjlist_outer_dict_factory'
p1956
g7
sb.