ccopy_reg
_reconstructor
p0
(cnetworkx.classes.graph
Graph
p1
c__builtin__
object
p2
Ntp3
Rp4
(dp5
S'adjlist_inner_dict_factory'
p6
c__builtin__
dict
p7
sS'node_dict_factory'
p8
g7
sS'edge_attr_dict_factory'
p9
g7
sS'_node'
p10
(dp11
I0
(dp12
sI1
(dp13
sI2
(dp14
sI3
(dp15
sI4
(dp16
sI5
(dp17
sI6
(dp18
sI7
(dp19
sI8
(dp20
sI9
(dp21
sI11
(dp22
sI12
(dp23
sI13
(dp24
sI14
(dp25
sI15
(dp26
sI16
(dp27
sI17
(dp28
sI18
(dp29
sI19
(dp30
sI20
(dp31
sI21
(dp32
sI22
(dp33
sI23
(dp34
sI24
(dp35
sI25
(dp36
sI26
(dp37
sI27
(dp38
sI28
(dp39
sI29
(dp40
sI30
(dp41
sI32
(dp42
sI33
(dp43
sI34
(dp44
sI35
(dp45
sI36
(dp46
sI37
(dp47
sI38
(dp48
sI39
(dp49
sI40
(dp50
sI41
(dp51
sI42
(dp52
sI43
(dp53
sI44
(dp54
sI45
(dp55
sI46
(dp56
sI47
(dp57
sI48
(dp58
sI49
(dp59
sI50
(dp60
sI51
(dp61
sI53
(dp62
sI54
(dp63
sI55
(dp64
sI56
(dp65
sI57
(dp66
sI58
(dp67
sI59
(dp68
sI60
(dp69
sI61
(dp70
sI62
(dp71
sI63
(dp72
sI64
(dp73
sI65
(dp74
sI66
(dp75
sI67
(dp76
sI68
(dp77
sI69
(dp78
sI70
(dp79
sI71
(dp80
sI72
(dp81
sI74
(dp82
sI75
(dp83
sI76
(dp84
sI77
(dp85
sI78
(dp86
sI79
(dp87
sI80
(dp88
sI81
(dp89
sI82
(dp90
sI83
(dp91
sI84
(dp92
sI85
(dp93
sI86
(dp94
sI87
(dp95
sI88
(dp96
sI89
(dp97
sI90
(dp98
sI91
(dp99
sI92
(dp100
sI93
(dp101
sI94
(dp102
sI95
(dp103
sI96
(dp104
sI97
(dp105
sI98
(dp106
sI99
(dp107
sI100
(dp108
sI101
(dp109
sI102
(dp110
sI103
(dp111
sI104
(dp112
sI105
(dp113
sI106
(dp114
sI107
(dp115
sI108
(dp116
sI109
(dp117
sI110
(dp118
sI111
(dp119
sI112
(dp120
sI113
(dp121
sI114
(dp122
sI115
(dp123
sI116
(dp124
sI117
(dp125
sI118
(dp126
sI119
(dp127
sI120
(dp128
sI121
(dp129
sI122
(dp130
sI123
(dp131
sI124
(dp132
sI125
(dp133
sI126
(dp134
sI127
(dp135
sI128
(dp136
sI129
(dp137
sI130
(dp138
sI131
(dp139
sI132
(dp140
sI133
(dp141
sI134
(dp142
sI135
(dp143
sI137
(dp144
sI138
(dp145
sI139
(dp146
sI140
(dp147
sI141
(dp148
sI142
(dp149
sI143
(dp150
sI144
(dp151
sI145
(dp152
sI146
(dp153
sI147
(dp154
sI148
(dp155
sI149
(dp156
sI150
(dp157
sI151
(dp158
sI152
(dp159
sI153
(dp160
sI154
(dp161
sI155
(dp162
sI156
(dp163
sI158
(dp164
sI159
(dp165
sI160
(dp166
sI161
(dp167
sI162
(dp168
sI163
(dp169
sI164
(dp170
sI165
(dp171
sI166
(dp172
sI167
(dp173
sI168
(dp174
sI169
(dp175
sI170
(dp176
sI171
(dp177
sI172
(dp178
sI173
(dp179
sI174
(dp180
sI175
(dp181
sI176
(dp182
sI177
(dp183
sI179
(dp184
sI180
(dp185
sI181
(dp186
sI182
(dp187
sI183
(dp188
sI184
(dp189
sI185
(dp190
sI186
(dp191
sI187
(dp192
sI188
(dp193
sI189
(dp194
sI190
(dp195
sI191
(dp196
sI192
(dp197
sI193
(dp198
sI194
(dp199
sI195
(dp200
sI196
(dp201
sI197
(dp202
sI198
(dp203
sI200
(dp204
sI201
(dp205
sI202
(dp206
sI203
(dp207
sI204
(dp208
sI205
(dp209
sI206
(dp210
sI207
(dp211
sI208
(dp212
sI209
(dp213
ssS'graph'
p214
(dp215
sS'root_graph'
p216
g4
sS'_adj'
p217
(dp218
I0
(dp219
I1
(dp220
sI21
(dp221
ssI1
(dp222
I0
g220
sI2
(dp223
sI22
(dp224
ssI2
(dp225
I1
g223
sI3
(dp226
sI23
(dp227
ssI3
(dp228
I24
(dp229
sI2
g226
sI4
(dp230
ssI4
(dp231
I25
(dp232
sI3
g230
sI5
(dp233
ssI5
(dp234
I26
(dp235
sI4
g233
sI6
(dp236
ssI6
(dp237
I27
(dp238
sI5
g236
sI7
(dp239
ssI7
(dp240
I8
(dp241
sI28
(dp242
sI6
g239
ssI8
(dp243
I9
(dp244
sI29
(dp245
sI7
g241
ssI9
(dp246
I8
g244
sI30
(dp247
ssI11
(dp248
I32
(dp249
sI12
(dp250
ssI12
(dp251
I33
(dp252
sI11
g250
sI13
(dp253
ssI13
(dp254
I34
(dp255
sI12
g253
sI14
(dp256
ssI14
(dp257
I35
(dp258
sI13
g256
sI15
(dp259
ssI15
(dp260
I16
(dp261
sI36
(dp262
sI14
g259
ssI16
(dp263
I17
(dp264
sI37
(dp265
sI15
g261
ssI17
(dp266
I16
g264
sI18
(dp267
sI38
(dp268
ssI18
(dp269
I17
g267
sI19
(dp270
sI39
(dp271
ssI19
(dp272
I40
(dp273
sI18
g270
sI20
(dp274
ssI20
(dp275
I41
(dp276
sI19
g274
ssI21
(dp277
I0
g221
sI42
(dp278
sI22
(dp279
ssI22
(dp280
I1
g224
sI43
(dp281
sI21
g279
sI23
(dp282
ssI23
(dp283
I24
(dp284
sI2
g227
sI44
(dp285
sI22
g282
ssI24
(dp286
I25
(dp287
sI3
g229
sI45
(dp288
sI23
g284
ssI25
(dp289
I24
g287
sI26
(dp290
sI4
g232
sI46
(dp291
ssI26
(dp292
I25
g290
sI27
(dp293
sI5
g235
sI47
(dp294
ssI27
(dp295
I48
(dp296
sI26
g293
sI28
(dp297
sI6
g238
ssI28
(dp298
I49
(dp299
sI27
g297
sI29
(dp300
sI7
g242
ssI29
(dp301
I8
g245
sI50
(dp302
sI28
g300
sI30
(dp303
ssI30
(dp304
I9
g247
sI51
(dp305
sI29
g303
ssI32
(dp306
I33
(dp307
sI11
g249
sI53
(dp308
ssI33
(dp309
I32
g307
sI34
(dp310
sI12
g252
sI54
(dp311
ssI34
(dp312
I33
g310
sI35
(dp313
sI13
g255
sI55
(dp314
ssI35
(dp315
I56
(dp316
sI34
g313
sI36
(dp317
sI14
g258
ssI36
(dp318
I57
(dp319
sI35
g317
sI37
(dp320
sI15
g262
ssI37
(dp321
I16
g265
sI58
(dp322
sI36
g320
sI38
(dp323
ssI38
(dp324
I17
g268
sI59
(dp325
sI37
g323
sI39
(dp326
ssI39
(dp327
I40
(dp328
sI18
g271
sI60
(dp329
sI38
g326
ssI40
(dp330
I41
(dp331
sI19
g273
sI61
(dp332
sI39
g328
ssI41
(dp333
I40
g331
sI20
g276
sI62
(dp334
ssI42
(dp335
I43
(dp336
sI21
g278
sI63
(dp337
ssI43
(dp338
I64
(dp339
sI42
g336
sI44
(dp340
sI22
g281
ssI44
(dp341
I65
(dp342
sI43
g340
sI45
(dp343
sI23
g285
ssI45
(dp344
I24
g288
sI66
(dp345
sI44
g343
sI46
(dp346
ssI46
(dp347
I25
g291
sI67
(dp348
sI45
g346
sI47
(dp349
ssI47
(dp350
I48
(dp351
sI26
g294
sI68
(dp352
sI46
g349
ssI48
(dp353
I49
(dp354
sI27
g296
sI69
(dp355
sI47
g351
ssI49
(dp356
I48
g354
sI50
(dp357
sI28
g299
sI70
(dp358
ssI50
(dp359
I49
g357
sI51
(dp360
sI29
g302
sI71
(dp361
ssI51
(dp362
I72
(dp363
sI50
g360
sI30
g305
ssI53
(dp364
I32
g308
sI74
(dp365
sI54
(dp366
ssI54
(dp367
I33
g311
sI75
(dp368
sI53
g366
sI55
(dp369
ssI55
(dp370
I56
(dp371
sI34
g314
sI76
(dp372
sI54
g369
ssI56
(dp373
I57
(dp374
sI35
g316
sI77
(dp375
sI55
g371
ssI57
(dp376
I56
g374
sI58
(dp377
sI36
g319
sI78
(dp378
ssI58
(dp379
I57
g377
sI59
(dp380
sI37
g322
sI79
(dp381
ssI59
(dp382
I80
(dp383
sI58
g380
sI60
(dp384
sI38
g325
ssI60
(dp385
I81
(dp386
sI59
g384
sI61
(dp387
sI39
g329
ssI61
(dp388
I40
g332
sI82
(dp389
sI60
g387
sI62
(dp390
ssI62
(dp391
I41
g334
sI83
(dp392
sI61
g390
ssI63
(dp393
I64
(dp394
sI42
g337
sI84
(dp395
ssI64
(dp396
I65
(dp397
sI43
g339
sI85
(dp398
sI63
g394
ssI65
(dp399
I64
g397
sI66
(dp400
sI44
g342
sI86
(dp401
ssI66
(dp402
I65
g400
sI67
(dp403
sI45
g345
sI87
(dp404
ssI67
(dp405
I88
(dp406
sI66
g403
sI68
(dp407
sI46
g348
ssI68
(dp408
I89
(dp409
sI67
g407
sI69
(dp410
sI47
g352
ssI69
(dp411
I48
g355
sI90
(dp412
sI68
g410
sI70
(dp413
ssI70
(dp414
I49
g358
sI91
(dp415
sI69
g413
sI71
(dp416
ssI71
(dp417
I72
(dp418
sI50
g361
sI92
(dp419
sI70
g416
ssI72
(dp420
I51
g363
sI93
(dp421
sI71
g418
ssI74
(dp422
I75
(dp423
sI53
g365
sI95
(dp424
ssI75
(dp425
I96
(dp426
sI74
g423
sI76
(dp427
sI54
g368
ssI76
(dp428
I97
(dp429
sI75
g427
sI77
(dp430
sI55
g372
ssI77
(dp431
I56
g375
sI98
(dp432
sI76
g430
sI78
(dp433
ssI78
(dp434
I57
g378
sI99
(dp435
sI77
g433
sI79
(dp436
ssI79
(dp437
I80
(dp438
sI58
g381
sI100
(dp439
sI78
g436
ssI80
(dp440
I81
(dp441
sI59
g383
sI101
(dp442
sI79
g438
ssI81
(dp443
I80
g441
sI82
(dp444
sI60
g386
sI102
(dp445
ssI82
(dp446
I81
g444
sI83
(dp447
sI61
g389
sI103
(dp448
ssI83
(dp449
I104
(dp450
sI82
g447
sI62
g392
ssI84
(dp451
I105
(dp452
sI85
(dp453
sI63
g395
ssI85
(dp454
I64
g398
sI106
(dp455
sI84
g453
sI86
(dp456
ssI86
(dp457
I65
g401
sI107
(dp458
sI85
g456
sI87
(dp459
ssI87
(dp460
I88
(dp461
sI66
g404
sI108
(dp462
sI86
g459
ssI88
(dp463
I89
(dp464
sI67
g406
sI109
(dp465
sI87
g461
ssI89
(dp466
I88
g464
sI90
(dp467
sI68
g409
sI110
(dp468
ssI90
(dp469
I89
g467
sI91
(dp470
sI69
g412
sI111
(dp471
ssI91
(dp472
I112
(dp473
sI90
g470
sI92
(dp474
sI70
g415
ssI92
(dp475
I113
(dp476
sI91
g474
sI93
(dp477
sI71
g419
ssI93
(dp478
I72
g421
sI114
(dp479
sI92
g477
sI94
(dp480
ssI94
(dp481
I115
(dp482
sI93
g480
sI95
(dp483
ssI95
(dp484
I96
(dp485
sI74
g424
sI116
(dp486
sI94
g483
ssI96
(dp487
I97
(dp488
sI75
g426
sI117
(dp489
sI95
g485
ssI97
(dp490
I96
g488
sI98
(dp491
sI76
g429
sI118
(dp492
ssI98
(dp493
I97
g491
sI99
(dp494
sI77
g432
sI119
(dp495
ssI99
(dp496
I120
(dp497
sI98
g494
sI100
(dp498
sI78
g435
ssI100
(dp499
I121
(dp500
sI99
g498
sI101
(dp501
sI79
g439
ssI101
(dp502
I80
g442
sI122
(dp503
sI100
g501
sI102
(dp504
ssI102
(dp505
I81
g445
sI123
(dp506
sI101
g504
sI103
(dp507
ssI103
(dp508
I104
(dp509
sI82
g448
sI124
(dp510
sI102
g507
ssI104
(dp511
I83
g450
sI125
(dp512
sI103
g509
ssI105
(dp513
I106
(dp514
sI84
g452
sI126
(dp515
ssI106
(dp516
I105
g514
sI107
(dp517
sI85
g455
sI127
(dp518
ssI107
(dp519
I128
(dp520
sI106
g517
sI108
(dp521
sI86
g458
ssI108
(dp522
I129
(dp523
sI107
g521
sI109
(dp524
sI87
g462
ssI109
(dp525
I88
g465
sI130
(dp526
sI108
g524
sI110
(dp527
ssI110
(dp528
I89
g468
sI131
(dp529
sI109
g527
sI111
(dp530
ssI111
(dp531
I112
(dp532
sI90
g471
sI132
(dp533
sI110
g530
ssI112
(dp534
I113
(dp535
sI91
g473
sI133
(dp536
sI111
g532
ssI113
(dp537
I112
g535
sI114
(dp538
sI92
g476
sI134
(dp539
ssI114
(dp540
I113
g538
sI115
(dp541
sI93
g479
sI135
(dp542
ssI115
(dp543
I114
g541
sI116
(dp544
sI94
g482
ssI116
(dp545
I137
(dp546
sI115
g544
sI117
(dp547
sI95
g486
ssI117
(dp548
I96
g489
sI138
(dp549
sI116
g547
sI118
(dp550
ssI118
(dp551
I97
g492
sI139
(dp552
sI117
g550
sI119
(dp553
ssI119
(dp554
I120
(dp555
sI98
g495
sI140
(dp556
sI118
g553
ssI120
(dp557
I121
(dp558
sI99
g497
sI141
(dp559
sI119
g555
ssI121
(dp560
I120
g558
sI122
(dp561
sI100
g500
sI142
(dp562
ssI122
(dp563
I121
g561
sI123
(dp564
sI101
g503
sI143
(dp565
ssI123
(dp566
I144
(dp567
sI122
g564
sI124
(dp568
sI102
g506
ssI124
(dp569
I145
(dp570
sI123
g568
sI125
(dp571
sI103
g510
ssI125
(dp572
I104
g512
sI146
(dp573
sI124
g571
ssI126
(dp574
I105
g515
sI147
(dp575
sI127
(dp576
ssI127
(dp577
I128
(dp578
sI106
g518
sI148
(dp579
sI126
g576
ssI128
(dp580
I129
(dp581
sI107
g520
sI149
(dp582
sI127
g578
ssI129
(dp583
I128
g581
sI130
(dp584
sI108
g523
sI150
(dp585
ssI130
(dp586
I129
g584
sI131
(dp587
sI109
g526
sI151
(dp588
ssI131
(dp589
I152
(dp590
sI130
g587
sI132
(dp591
sI110
g529
ssI132
(dp592
I153
(dp593
sI131
g591
sI133
(dp594
sI111
g533
ssI133
(dp595
I112
g536
sI154
(dp596
sI132
g594
sI134
(dp597
ssI134
(dp598
I113
g539
sI155
(dp599
sI133
g597
sI135
(dp600
ssI135
(dp601
I114
g542
sI156
(dp602
sI134
g600
ssI137
(dp603
I138
(dp604
sI116
g546
sI158
(dp605
ssI138
(dp606
I137
g604
sI139
(dp607
sI117
g549
sI159
(dp608
ssI139
(dp609
I160
(dp610
sI138
g607
sI140
(dp611
sI118
g552
ssI140
(dp612
I161
(dp613
sI139
g611
sI141
(dp614
sI119
g556
ssI141
(dp615
I120
g559
sI162
(dp616
sI140
g614
sI142
(dp617
ssI142
(dp618
I121
g562
sI163
(dp619
sI141
g617
sI143
(dp620
ssI143
(dp621
I144
(dp622
sI122
g565
sI164
(dp623
sI142
g620
ssI144
(dp624
I145
(dp625
sI123
g567
sI165
(dp626
sI143
g622
ssI145
(dp627
I144
g625
sI146
(dp628
sI124
g570
sI166
(dp629
ssI146
(dp630
I145
g628
sI125
g573
sI167
(dp631
ssI147
(dp632
I168
(dp633
sI148
(dp634
sI126
g575
ssI148
(dp635
I169
(dp636
sI147
g634
sI149
(dp637
sI127
g579
ssI149
(dp638
I128
g582
sI170
(dp639
sI148
g637
sI150
(dp640
ssI150
(dp641
I129
g585
sI171
(dp642
sI149
g640
sI151
(dp643
ssI151
(dp644
I152
(dp645
sI130
g588
sI172
(dp646
sI150
g643
ssI152
(dp647
I153
(dp648
sI131
g590
sI173
(dp649
sI151
g645
ssI153
(dp650
I152
g648
sI154
(dp651
sI132
g593
sI174
(dp652
ssI154
(dp653
I153
g651
sI155
(dp654
sI133
g596
sI175
(dp655
ssI155
(dp656
I176
(dp657
sI154
g654
sI156
(dp658
sI134
g599
ssI156
(dp659
I177
(dp660
sI155
g658
sI135
g602
ssI158
(dp661
I137
g605
sI179
(dp662
sI159
(dp663
ssI159
(dp664
I160
(dp665
sI138
g608
sI180
(dp666
sI158
g663
ssI160
(dp667
I161
(dp668
sI139
g610
sI181
(dp669
sI159
g665
ssI161
(dp670
I160
g668
sI162
(dp671
sI140
g613
sI182
(dp672
ssI162
(dp673
I161
g671
sI163
(dp674
sI141
g616
sI183
(dp675
ssI163
(dp676
I184
(dp677
sI162
g674
sI164
(dp678
sI142
g619
ssI164
(dp679
I185
(dp680
sI163
g678
sI165
(dp681
sI143
g623
ssI165
(dp682
I144
g626
sI186
(dp683
sI164
g681
sI166
(dp684
ssI166
(dp685
I145
g629
sI187
(dp686
sI165
g684
sI167
(dp687
ssI167
(dp688
I146
g631
sI188
(dp689
sI166
g687
ssI168
(dp690
I169
(dp691
sI147
g633
sI189
(dp692
ssI169
(dp693
I168
g691
sI170
(dp694
sI148
g636
sI190
(dp695
ssI170
(dp696
I169
g694
sI171
(dp697
sI149
g639
sI191
(dp698
ssI171
(dp699
I192
(dp700
sI170
g697
sI172
(dp701
sI150
g642
ssI172
(dp702
I193
(dp703
sI171
g701
sI173
(dp704
sI151
g646
ssI173
(dp705
I152
g649
sI194
(dp706
sI172
g704
sI174
(dp707
ssI174
(dp708
I153
g652
sI195
(dp709
sI173
g707
sI175
(dp710
ssI175
(dp711
I176
(dp712
sI154
g655
sI196
(dp713
sI174
g710
ssI176
(dp714
I177
(dp715
sI155
g657
sI197
(dp716
sI175
g712
ssI177
(dp717
I176
g715
sI156
g660
sI198
(dp718
ssI179
(dp719
I200
(dp720
sI180
(dp721
sI158
g662
ssI180
(dp722
I201
(dp723
sI179
g721
sI181
(dp724
sI159
g666
ssI181
(dp725
I160
g669
sI202
(dp726
sI180
g724
sI182
(dp727
ssI182
(dp728
I161
g672
sI203
(dp729
sI181
g727
sI183
(dp730
ssI183
(dp731
I184
(dp732
sI162
g675
sI204
(dp733
sI182
g730
ssI184
(dp734
I185
(dp735
sI163
g677
sI205
(dp736
sI183
g732
ssI185
(dp737
I184
g735
sI186
(dp738
sI164
g680
sI206
(dp739
ssI186
(dp740
I185
g738
sI187
(dp741
sI165
g683
sI207
(dp742
ssI187
(dp743
I208
(dp744
sI186
g741
sI188
(dp745
sI166
g686
ssI188
(dp746
I209
(dp747
sI187
g745
sI167
g689
ssI189
(dp748
I168
g692
sI190
(dp749
ssI190
(dp750
I169
g695
sI189
g749
sI191
(dp751
ssI191
(dp752
I192
(dp753
sI170
g698
sI190
g751
ssI192
(dp754
I193
(dp755
sI171
g700
sI191
g753
ssI193
(dp756
I192
g755
sI194
(dp757
sI172
g703
ssI194
(dp758
I193
g757
sI195
(dp759
sI173
g706
ssI195
(dp760
I194
g759
sI196
(dp761
sI174
g709
ssI196
(dp762
I195
g761
sI197
(dp763
sI175
g713
ssI197
(dp764
I176
g716
sI196
g763
sI198
(dp765
ssI198
(dp766
I177
g718
sI197
g765
ssI200
(dp767
I201
(dp768
sI179
g720
ssI201
(dp769
I200
g768
sI202
(dp770
sI180
g723
ssI202
(dp771
I201
g770
sI203
(dp772
sI181
g726
ssI203
(dp773
I202
g772
sI204
(dp774
sI182
g729
ssI204
(dp775
I203
g774
sI205
(dp776
sI183
g733
ssI205
(dp777
I184
g736
sI204
g776
sI206
(dp778
ssI206
(dp779
I185
g739
sI205
g778
sI207
(dp780
ssI207
(dp781
I208
(dp782
sI186
g742
sI206
g780
ssI208
(dp783
I209
(dp784
sI187
g744
sI207
g782
ssI209
(dp785
I208
g784
sI188
g747
sssS'adjlist_outer_dict_factory'
p786
g7
sb.