ccopy_reg
_reconstructor
p0
(cnetworkx.classes.graph
Graph
p1
c__builtin__
object
p2
Ntp3
Rp4
(dp5
S'adjlist_inner_dict_factory'
p6
c__builtin__
dict
p7
sS'node_dict_factory'
p8
g7
sS'edge_attr_dict_factory'
p9
g7
sS'_node'
p10
(dp11
I0
(dp12
sI1
(dp13
sI2
(dp14
sI3
(dp15
sI4
(dp16
sI5
(dp17
sI6
(dp18
sI7
(dp19
sI8
(dp20
sI9
(dp21
sI10
(dp22
sI11
(dp23
sI12
(dp24
sI13
(dp25
sI14
(dp26
sI15
(dp27
sI16
(dp28
sI17
(dp29
sI18
(dp30
sI19
(dp31
sI20
(dp32
sI21
(dp33
sI22
(dp34
sI23
(dp35
sI24
(dp36
sI25
(dp37
sI26
(dp38
sI27
(dp39
sI28
(dp40
sI29
(dp41
sI30
(dp42
sI31
(dp43
sI32
(dp44
sI33
(dp45
sI34
(dp46
sI36
(dp47
sI37
(dp48
sI38
(dp49
sI39
(dp50
sI40
(dp51
sI41
(dp52
sI42
(dp53
sI43
(dp54
sI44
(dp55
sI45
(dp56
sI46
(dp57
sI47
(dp58
sI48
(dp59
sI49
(dp60
sI50
(dp61
sI51
(dp62
sI52
(dp63
sI53
(dp64
sI54
(dp65
sI55
(dp66
sI56
(dp67
sI57
(dp68
sI58
(dp69
sI59
(dp70
sI60
(dp71
sI61
(dp72
sI62
(dp73
sI63
(dp74
sI64
(dp75
sI65
(dp76
sI66
(dp77
sI67
(dp78
sI68
(dp79
sI69
(dp80
sI70
(dp81
sI71
(dp82
sI72
(dp83
sI73
(dp84
sI74
(dp85
sI75
(dp86
sI76
(dp87
sI77
(dp88
sI78
(dp89
sI79
(dp90
sI80
(dp91
sI81
(dp92
sI82
(dp93
sI83
(dp94
sI84
(dp95
sI85
(dp96
sI86
(dp97
sI87
(dp98
sI88
(dp99
sI89
(dp100
sI90
(dp101
sI91
(dp102
sI92
(dp103
sI93
(dp104
sI94
(dp105
sI95
(dp106
sI96
(dp107
sI97
(dp108
sI98
(dp109
sI99
(dp110
sI100
(dp111
sI101
(dp112
sI102
(dp113
sI103
(dp114
sI104
(dp115
sI105
(dp116
sI107
(dp117
sI108
(dp118
sI109
(dp119
sI110
(dp120
sI111
(dp121
sI112
(dp122
sI113
(dp123
sI114
(dp124
sI115
(dp125
sI116
(dp126
sI117
(dp127
sI118
(dp128
sI119
(dp129
sI120
(dp130
sI121
(dp131
sI122
(dp132
sI123
(dp133
sI124
(dp134
sI125
(dp135
sI126
(dp136
sI127
(dp137
sI128
(dp138
sI129
(dp139
sI130
(dp140
sI131
(dp141
sI132
(dp142
sI133
(dp143
sI134
(dp144
sI135
(dp145
sI136
(dp146
sI137
(dp147
sI138
(dp148
sI139
(dp149
sI140
(dp150
sI141
(dp151
sI142
(dp152
sI143
(dp153
sI144
(dp154
sI145
(dp155
sI146
(dp156
sI147
(dp157
sI148
(dp158
sI149
(dp159
sI150
(dp160
sI151
(dp161
sI152
(dp162
sI153
(dp163
sI154
(dp164
sI155
(dp165
sI156
(dp166
sI157
(dp167
sI158
(dp168
sI159
(dp169
sI160
(dp170
sI161
(dp171
sI162
(dp172
sI163
(dp173
sI164
(dp174
sI165
(dp175
sI166
(dp176
sI167
(dp177
sI168
(dp178
sI169
(dp179
sI170
(dp180
sI171
(dp181
sI172
(dp182
sI173
(dp183
sI174
(dp184
sI175
(dp185
sI176
(dp186
sI178
(dp187
sI179
(dp188
sI180
(dp189
sI181
(dp190
sI182
(dp191
sI183
(dp192
sI184
(dp193
sI185
(dp194
sI186
(dp195
sI187
(dp196
sI188
(dp197
sI189
(dp198
sI190
(dp199
sI191
(dp200
sI192
(dp201
sI193
(dp202
sI194
(dp203
sI195
(dp204
sI196
(dp205
sI197
(dp206
sI198
(dp207
sI199
(dp208
sI200
(dp209
sI201
(dp210
sI202
(dp211
sI203
(dp212
sI204
(dp213
sI205
(dp214
sI206
(dp215
sI207
(dp216
sI208
(dp217
sI209
(dp218
sI210
(dp219
sI211
(dp220
sI212
(dp221
sI213
(dp222
sI214
(dp223
sI215
(dp224
sI216
(dp225
sI217
(dp226
sI218
(dp227
sI219
(dp228
sI220
(dp229
sI221
(dp230
sI222
(dp231
sI223
(dp232
sI224
(dp233
sI225
(dp234
sI226
(dp235
sI227
(dp236
sI228
(dp237
sI229
(dp238
sI230
(dp239
sI231
(dp240
sI232
(dp241
sI233
(dp242
sI234
(dp243
sI235
(dp244
sI236
(dp245
sI237
(dp246
sI238
(dp247
sI239
(dp248
sI240
(dp249
sI241
(dp250
sI242
(dp251
sI243
(dp252
sI244
(dp253
sI245
(dp254
sI246
(dp255
sI247
(dp256
sI249
(dp257
sI250
(dp258
sI251
(dp259
sI252
(dp260
sI253
(dp261
sI254
(dp262
sI255
(dp263
sI256
(dp264
sI257
(dp265
sI258
(dp266
sI259
(dp267
sI260
(dp268
sI261
(dp269
sI262
(dp270
sI263
(dp271
sI264
(dp272
sI265
(dp273
sI266
(dp274
sI267
(dp275
sI268
(dp276
sI269
(dp277
sI270
(dp278
sI271
(dp279
sI272
(dp280
sI273
(dp281
sI274
(dp282
sI275
(dp283
sI276
(dp284
sI277
(dp285
sI278
(dp286
sI279
(dp287
sI280
(dp288
sI281
(dp289
sI282
(dp290
sI283
(dp291
sI284
(dp292
sI285
(dp293
sI286
(dp294
sI287
(dp295
sI288
(dp296
sI289
(dp297
sI290
(dp298
sI291
(dp299
sI292
(dp300
sI293
(dp301
sI294
(dp302
sI295
(dp303
sI296
(dp304
sI297
(dp305
sI298
(dp306
sI299
(dp307
sI300
(dp308
sI301
(dp309
sI302
(dp310
sI303
(dp311
sI304
(dp312
sI305
(dp313
sI306
(dp314
sI307
(dp315
sI308
(dp316
sI309
(dp317
sI310
(dp318
sI311
(dp319
sI312
(dp320
sI313
(dp321
sI314
(dp322
sI315
(dp323
sI316
(dp324
sI317
(dp325
sI318
(dp326
sI319
(dp327
sI320
(dp328
sI321
(dp329
sI322
(dp330
sI323
(dp331
sI324
(dp332
sI325
(dp333
sI326
(dp334
sI327
(dp335
sI328
(dp336
sI329
(dp337
sI330
(dp338
sI331
(dp339
sI332
(dp340
sI333
(dp341
sI334
(dp342
sI335
(dp343
sI336
(dp344
sI337
(dp345
sI338
(dp346
sI339
(dp347
sI340
(dp348
sI341
(dp349
sI342
(dp350
sI343
(dp351
sI344
(dp352
sI345
(dp353
sI346
(dp354
sI347
(dp355
sI348
(dp356
sI349
(dp357
sI350
(dp358
sI351
(dp359
sI352
(dp360
sI353
(dp361
sI354
(dp362
sI355
(dp363
sI356
(dp364
sI357
(dp365
sI358
(dp366
sI359
(dp367
sI360
(dp368
sI361
(dp369
sI362
(dp370
sI363
(dp371
sI364
(dp372
sI365
(dp373
sI366
(dp374
sI367
(dp375
sI368
(dp376
sI369
(dp377
sI370
(dp378
sI371
(dp379
sI372
(dp380
sI373
(dp381
sI374
(dp382
sI375
(dp383
sI376
(dp384
sI377
(dp385
sI378
(dp386
sI379
(dp387
sI380
(dp388
sI381
(dp389
sI382
(dp390
sI383
(dp391
sI384
(dp392
sI385
(dp393
sI386
(dp394
sI387
(dp395
sI388
(dp396
sI389
(dp397
sI390
(dp398
sI391
(dp399
sI392
(dp400
sI393
(dp401
sI394
(dp402
sI395
(dp403
sI396
(dp404
sI397
(dp405
sI398
(dp406
sI399
(dp407
sI400
(dp408
sI401
(dp409
sI402
(dp410
sI403
(dp411
sI404
(dp412
sI405
(dp413
sI406
(dp414
sI407
(dp415
sI408
(dp416
sI409
(dp417
sI410
(dp418
sI411
(dp419
sI412
(dp420
sI413
(dp421
sI414
(dp422
sI415
(dp423
sI416
(dp424
sI417
(dp425
sI418
(dp426
sI419
(dp427
sI420
(dp428
sI421
(dp429
sI422
(dp430
sI423
(dp431
sI424
(dp432
sI425
(dp433
sI426
(dp434
sI427
(dp435
sI428
(dp436
sI429
(dp437
sI430
(dp438
sI431
(dp439
sI432
(dp440
sI433
(dp441
sI434
(dp442
sI435
(dp443
sI436
(dp444
sI437
(dp445
sI438
(dp446
sI439
(dp447
sI440
(dp448
sI441
(dp449
sI442
(dp450
sI443
(dp451
sI444
(dp452
sI445
(dp453
sI446
(dp454
sI447
(dp455
sI448
(dp456
sI449
(dp457
sI450
(dp458
sI451
(dp459
sI452
(dp460
sI453
(dp461
sI454
(dp462
sI455
(dp463
sI456
(dp464
sI457
(dp465
sI458
(dp466
sI459
(dp467
sI460
(dp468
sI462
(dp469
sI463
(dp470
sI464
(dp471
sI465
(dp472
sI466
(dp473
sI467
(dp474
sI468
(dp475
sI469
(dp476
sI470
(dp477
sI471
(dp478
sI472
(dp479
sI473
(dp480
sI474
(dp481
sI475
(dp482
sI476
(dp483
sI477
(dp484
sI478
(dp485
sI479
(dp486
sI480
(dp487
sI481
(dp488
sI482
(dp489
sI483
(dp490
sI484
(dp491
sI485
(dp492
sI486
(dp493
sI487
(dp494
sI488
(dp495
sI489
(dp496
sI490
(dp497
sI491
(dp498
sI492
(dp499
sI493
(dp500
sI494
(dp501
sI495
(dp502
sI496
(dp503
sI497
(dp504
sI498
(dp505
sI499
(dp506
sI500
(dp507
sI501
(dp508
sI502
(dp509
sI503
(dp510
sI504
(dp511
sI505
(dp512
sI506
(dp513
sI507
(dp514
sI508
(dp515
sI509
(dp516
sI510
(dp517
sI511
(dp518
sI512
(dp519
sI513
(dp520
sI514
(dp521
sI515
(dp522
sI516
(dp523
sI517
(dp524
sI518
(dp525
sI519
(dp526
sI520
(dp527
sI521
(dp528
sI522
(dp529
sI523
(dp530
sI524
(dp531
sI525
(dp532
sI526
(dp533
sI527
(dp534
sI528
(dp535
sI529
(dp536
sI530
(dp537
sI531
(dp538
sI533
(dp539
sI534
(dp540
sI535
(dp541
sI536
(dp542
sI537
(dp543
sI538
(dp544
sI539
(dp545
sI540
(dp546
sI541
(dp547
sI542
(dp548
sI543
(dp549
sI544
(dp550
sI545
(dp551
sI546
(dp552
sI547
(dp553
sI548
(dp554
sI549
(dp555
sI550
(dp556
sI551
(dp557
sI552
(dp558
sI553
(dp559
sI554
(dp560
sI555
(dp561
sI556
(dp562
sI557
(dp563
sI558
(dp564
sI559
(dp565
sI560
(dp566
sI561
(dp567
sI562
(dp568
sI563
(dp569
sI564
(dp570
sI565
(dp571
sI566
(dp572
sI567
(dp573
sI568
(dp574
sI569
(dp575
sI570
(dp576
sI571
(dp577
sI572
(dp578
sI573
(dp579
sI574
(dp580
sI575
(dp581
sI576
(dp582
sI577
(dp583
sI578
(dp584
sI579
(dp585
sI580
(dp586
sI581
(dp587
sI582
(dp588
sI583
(dp589
sI584
(dp590
sI585
(dp591
sI586
(dp592
sI587
(dp593
sI588
(dp594
sI589
(dp595
sI590
(dp596
sI591
(dp597
sI592
(dp598
sI593
(dp599
sI594
(dp600
sI595
(dp601
sI596
(dp602
sI597
(dp603
sI598
(dp604
sI599
(dp605
sI600
(dp606
sI601
(dp607
sI602
(dp608
sI604
(dp609
sI605
(dp610
sI606
(dp611
sI607
(dp612
sI608
(dp613
sI609
(dp614
sI610
(dp615
sI611
(dp616
sI612
(dp617
sI613
(dp618
sI614
(dp619
sI615
(dp620
sI616
(dp621
sI617
(dp622
sI618
(dp623
sI619
(dp624
sI620
(dp625
sI621
(dp626
sI622
(dp627
sI623
(dp628
sI624
(dp629
sI625
(dp630
sI626
(dp631
sI627
(dp632
sI628
(dp633
sI629
(dp634
sI630
(dp635
sI631
(dp636
sI632
(dp637
sI633
(dp638
sI634
(dp639
sI635
(dp640
sI636
(dp641
sI637
(dp642
sI638
(dp643
sI639
(dp644
sI640
(dp645
sI641
(dp646
sI642
(dp647
sI643
(dp648
sI644
(dp649
sI645
(dp650
sI646
(dp651
sI647
(dp652
sI648
(dp653
sI649
(dp654
sI650
(dp655
sI651
(dp656
sI652
(dp657
sI653
(dp658
sI654
(dp659
sI655
(dp660
sI656
(dp661
sI657
(dp662
sI658
(dp663
sI659
(dp664
sI660
(dp665
sI661
(dp666
sI662
(dp667
sI663
(dp668
sI664
(dp669
sI665
(dp670
sI666
(dp671
sI667
(dp672
sI668
(dp673
sI669
(dp674
sI670
(dp675
sI671
(dp676
sI672
(dp677
sI673
(dp678
sI675
(dp679
sI676
(dp680
sI677
(dp681
sI678
(dp682
sI679
(dp683
sI680
(dp684
sI681
(dp685
sI682
(dp686
sI683
(dp687
sI684
(dp688
sI685
(dp689
sI686
(dp690
sI687
(dp691
sI688
(dp692
sI689
(dp693
sI690
(dp694
sI691
(dp695
sI692
(dp696
sI693
(dp697
sI694
(dp698
sI695
(dp699
sI696
(dp700
sI697
(dp701
sI698
(dp702
sI699
(dp703
sI700
(dp704
sI701
(dp705
sI702
(dp706
sI703
(dp707
sI704
(dp708
sI705
(dp709
sI706
(dp710
sI707
(dp711
sI708
(dp712
sI709
(dp713
ssS'graph'
p714
(dp715
sS'root_graph'
p716
g4
sS'_adj'
p717
(dp718
I0
(dp719
I1
(dp720
sI71
(dp721
ssI1
(dp722
I0
g720
sI72
(dp723
sI2
(dp724
ssI2
(dp725
I1
g724
sI3
(dp726
sI73
(dp727
ssI3
(dp728
I2
g726
sI4
(dp729
sI74
(dp730
ssI4
(dp731
I75
(dp732
sI3
g729
sI5
(dp733
ssI5
(dp734
I76
(dp735
sI4
g733
sI6
(dp736
ssI6
(dp737
I7
(dp738
sI5
g736
sI77
(dp739
ssI7
(dp740
I8
(dp741
sI78
(dp742
sI6
g738
ssI8
(dp743
I9
(dp744
sI79
(dp745
sI7
g741
ssI9
(dp746
I8
g744
sI80
(dp747
sI10
(dp748
ssI10
(dp749
I9
g748
sI11
(dp750
sI81
(dp751
ssI11
(dp752
I10
g750
sI12
(dp753
sI82
(dp754
ssI12
(dp755
I83
(dp756
sI11
g753
sI13
(dp757
ssI13
(dp758
I84
(dp759
sI12
g757
sI14
(dp760
ssI14
(dp761
I15
(dp762
sI13
g760
sI85
(dp763
ssI15
(dp764
I16
(dp765
sI86
(dp766
sI14
g762
ssI16
(dp767
I17
(dp768
sI87
(dp769
sI15
g765
ssI17
(dp770
I16
g768
sI88
(dp771
sI18
(dp772
ssI18
(dp773
I17
g772
sI19
(dp774
sI89
(dp775
ssI19
(dp776
I18
g774
sI20
(dp777
sI90
(dp778
ssI20
(dp779
I91
(dp780
sI19
g777
sI21
(dp781
ssI21
(dp782
I92
(dp783
sI20
g781
sI22
(dp784
ssI22
(dp785
I23
(dp786
sI21
g784
sI93
(dp787
ssI23
(dp788
I24
(dp789
sI94
(dp790
sI22
g786
ssI24
(dp791
I25
(dp792
sI95
(dp793
sI23
g789
ssI25
(dp794
I24
g792
sI96
(dp795
sI26
(dp796
ssI26
(dp797
I25
g796
sI27
(dp798
sI97
(dp799
ssI27
(dp800
I26
g798
sI28
(dp801
sI98
(dp802
ssI28
(dp803
I99
(dp804
sI27
g801
sI29
(dp805
ssI29
(dp806
I100
(dp807
sI28
g805
sI30
(dp808
ssI30
(dp809
I31
(dp810
sI29
g808
sI101
(dp811
ssI31
(dp812
I32
(dp813
sI102
(dp814
sI30
g810
ssI32
(dp815
I33
(dp816
sI103
(dp817
sI31
g813
ssI33
(dp818
I32
g816
sI104
(dp819
sI34
(dp820
ssI34
(dp821
I33
g820
sI105
(dp822
ssI36
(dp823
I107
(dp824
sI37
(dp825
ssI37
(dp826
I108
(dp827
sI36
g825
sI38
(dp828
ssI38
(dp829
I39
(dp830
sI37
g828
sI109
(dp831
ssI39
(dp832
I40
(dp833
sI110
(dp834
sI38
g830
ssI40
(dp835
I41
(dp836
sI111
(dp837
sI39
g833
ssI41
(dp838
I40
g836
sI112
(dp839
sI42
(dp840
ssI42
(dp841
I41
g840
sI43
(dp842
sI113
(dp843
ssI43
(dp844
I42
g842
sI44
(dp845
sI114
(dp846
ssI44
(dp847
I115
(dp848
sI43
g845
sI45
(dp849
ssI45
(dp850
I116
(dp851
sI44
g849
sI46
(dp852
ssI46
(dp853
I47
(dp854
sI45
g852
sI117
(dp855
ssI47
(dp856
I48
(dp857
sI118
(dp858
sI46
g854
ssI48
(dp859
I49
(dp860
sI119
(dp861
sI47
g857
ssI49
(dp862
I48
g860
sI120
(dp863
sI50
(dp864
ssI50
(dp865
I49
g864
sI51
(dp866
sI121
(dp867
ssI51
(dp868
I50
g866
sI52
(dp869
sI122
(dp870
ssI52
(dp871
I123
(dp872
sI51
g869
sI53
(dp873
ssI53
(dp874
I124
(dp875
sI52
g873
sI54
(dp876
ssI54
(dp877
I55
(dp878
sI53
g876
sI125
(dp879
ssI55
(dp880
I56
(dp881
sI126
(dp882
sI54
g878
ssI56
(dp883
I57
(dp884
sI127
(dp885
sI55
g881
ssI57
(dp886
I56
g884
sI128
(dp887
sI58
(dp888
ssI58
(dp889
I57
g888
sI59
(dp890
sI129
(dp891
ssI59
(dp892
I58
g890
sI60
(dp893
sI130
(dp894
ssI60
(dp895
I59
g893
sI131
(dp896
sI61
(dp897
ssI61
(dp898
I132
(dp899
sI60
g897
sI62
(dp900
ssI62
(dp901
I63
(dp902
sI61
g900
sI133
(dp903
ssI63
(dp904
I64
(dp905
sI134
(dp906
sI62
g902
ssI64
(dp907
I65
(dp908
sI135
(dp909
sI63
g905
ssI65
(dp910
I64
g908
sI136
(dp911
sI66
(dp912
ssI66
(dp913
I65
g912
sI67
(dp914
sI137
(dp915
ssI67
(dp916
I66
g914
sI68
(dp917
sI138
(dp918
ssI68
(dp919
I67
g917
sI139
(dp920
sI69
(dp921
ssI69
(dp922
I140
(dp923
sI68
g921
sI70
(dp924
ssI70
(dp925
I69
g924
sI141
(dp926
ssI71
(dp927
I0
g721
sI72
(dp928
sI142
(dp929
ssI72
(dp930
I1
g723
sI143
(dp931
sI73
(dp932
sI71
g928
ssI73
(dp933
I72
g932
sI144
(dp934
sI2
g727
sI74
(dp935
ssI74
(dp936
I73
g935
sI75
(dp937
sI3
g730
sI145
(dp938
ssI75
(dp939
I76
(dp940
sI74
g937
sI4
g732
sI146
(dp941
ssI76
(dp942
I75
g940
sI147
(dp943
sI5
g735
sI77
(dp944
ssI77
(dp945
I148
(dp946
sI76
g944
sI78
(dp947
sI6
g739
ssI78
(dp948
I149
(dp949
sI79
(dp950
sI77
g947
sI7
g742
ssI79
(dp951
I8
g745
sI80
(dp952
sI150
(dp953
sI78
g950
ssI80
(dp954
I9
g747
sI151
(dp955
sI81
(dp956
sI79
g952
ssI81
(dp957
I80
g956
sI152
(dp958
sI10
g751
sI82
(dp959
ssI82
(dp960
I81
g959
sI83
(dp961
sI11
g754
sI153
(dp962
ssI83
(dp963
I84
(dp964
sI82
g961
sI12
g756
sI154
(dp965
ssI84
(dp966
I83
g964
sI155
(dp967
sI13
g759
sI85
(dp968
ssI85
(dp969
I156
(dp970
sI84
g968
sI86
(dp971
sI14
g763
ssI86
(dp972
I157
(dp973
sI87
(dp974
sI85
g971
sI15
g766
ssI87
(dp975
I16
g769
sI88
(dp976
sI158
(dp977
sI86
g974
ssI88
(dp978
I17
g771
sI159
(dp979
sI89
(dp980
sI87
g976
ssI89
(dp981
I88
g980
sI160
(dp982
sI18
g775
sI90
(dp983
ssI90
(dp984
I89
g983
sI91
(dp985
sI19
g778
sI161
(dp986
ssI91
(dp987
I92
(dp988
sI90
g985
sI20
g780
sI162
(dp989
ssI92
(dp990
I163
(dp991
sI91
g988
sI21
g783
sI93
(dp992
ssI93
(dp993
I164
(dp994
sI92
g992
sI94
(dp995
sI22
g787
ssI94
(dp996
I165
(dp997
sI95
(dp998
sI93
g995
sI23
g790
ssI95
(dp999
I24
g793
sI96
(dp1000
sI166
(dp1001
sI94
g998
ssI96
(dp1002
I25
g795
sI167
(dp1003
sI97
(dp1004
sI95
g1000
ssI97
(dp1005
I96
g1004
sI168
(dp1006
sI26
g799
sI98
(dp1007
ssI98
(dp1008
I99
(dp1009
sI97
g1007
sI27
g802
sI169
(dp1010
ssI99
(dp1011
I100
(dp1012
sI98
g1009
sI28
g804
sI170
(dp1013
ssI100
(dp1014
I171
(dp1015
sI99
g1012
sI29
g807
sI101
(dp1016
ssI101
(dp1017
I172
(dp1018
sI100
g1016
sI102
(dp1019
sI30
g811
ssI102
(dp1020
I173
(dp1021
sI103
(dp1022
sI101
g1019
sI31
g814
ssI103
(dp1023
I32
g817
sI104
(dp1024
sI174
(dp1025
sI102
g1022
ssI104
(dp1026
I33
g819
sI175
(dp1027
sI105
(dp1028
sI103
g1024
ssI105
(dp1029
I104
g1028
sI176
(dp1030
sI34
g822
ssI107
(dp1031
I108
(dp1032
sI178
(dp1033
sI36
g824
ssI108
(dp1034
I179
(dp1035
sI107
g1032
sI37
g827
sI109
(dp1036
ssI109
(dp1037
I180
(dp1038
sI108
g1036
sI110
(dp1039
sI38
g831
ssI110
(dp1040
I181
(dp1041
sI111
(dp1042
sI109
g1039
sI39
g834
ssI111
(dp1043
I40
g837
sI112
(dp1044
sI182
(dp1045
sI110
g1042
ssI112
(dp1046
I41
g839
sI183
(dp1047
sI113
(dp1048
sI111
g1044
ssI113
(dp1049
I112
g1048
sI184
(dp1050
sI42
g843
sI114
(dp1051
ssI114
(dp1052
I115
(dp1053
sI113
g1051
sI43
g846
sI185
(dp1054
ssI115
(dp1055
I116
(dp1056
sI114
g1053
sI44
g848
sI186
(dp1057
ssI116
(dp1058
I187
(dp1059
sI115
g1056
sI45
g851
sI117
(dp1060
ssI117
(dp1061
I188
(dp1062
sI116
g1060
sI118
(dp1063
sI46
g855
ssI118
(dp1064
I189
(dp1065
sI119
(dp1066
sI117
g1063
sI47
g858
ssI119
(dp1067
I48
g861
sI120
(dp1068
sI190
(dp1069
sI118
g1066
ssI120
(dp1070
I49
g863
sI191
(dp1071
sI121
(dp1072
sI119
g1068
ssI121
(dp1073
I120
g1072
sI192
(dp1074
sI50
g867
sI122
(dp1075
ssI122
(dp1076
I123
(dp1077
sI121
g1075
sI51
g870
sI193
(dp1078
ssI123
(dp1079
I124
(dp1080
sI122
g1077
sI52
g872
sI194
(dp1081
ssI124
(dp1082
I123
g1080
sI53
g875
sI195
(dp1083
sI125
(dp1084
ssI125
(dp1085
I196
(dp1086
sI124
g1084
sI126
(dp1087
sI54
g879
ssI126
(dp1088
I197
(dp1089
sI127
(dp1090
sI125
g1087
sI55
g882
ssI127
(dp1091
I56
g885
sI128
(dp1092
sI198
(dp1093
sI126
g1090
ssI128
(dp1094
I129
(dp1095
sI57
g887
sI199
(dp1096
sI127
g1092
ssI129
(dp1097
I128
g1095
sI200
(dp1098
sI58
g891
sI130
(dp1099
ssI130
(dp1100
I129
g1099
sI59
g894
sI131
(dp1101
sI201
(dp1102
ssI131
(dp1103
I132
(dp1104
sI130
g1101
sI60
g896
sI202
(dp1105
ssI132
(dp1106
I131
g1104
sI61
g899
sI203
(dp1107
sI133
(dp1108
ssI133
(dp1109
I204
(dp1110
sI132
g1108
sI134
(dp1111
sI62
g903
ssI134
(dp1112
I205
(dp1113
sI135
(dp1114
sI133
g1111
sI63
g906
ssI135
(dp1115
I64
g909
sI136
(dp1116
sI206
(dp1117
sI134
g1114
ssI136
(dp1118
I137
(dp1119
sI65
g911
sI207
(dp1120
sI135
g1116
ssI137
(dp1121
I136
g1119
sI208
(dp1122
sI66
g915
sI138
(dp1123
ssI138
(dp1124
I137
g1123
sI67
g918
sI139
(dp1125
sI209
(dp1126
ssI139
(dp1127
I140
(dp1128
sI138
g1125
sI68
g920
sI210
(dp1129
ssI140
(dp1130
I139
g1128
sI69
g923
sI211
(dp1131
sI141
(dp1132
ssI141
(dp1133
I212
(dp1134
sI140
g1132
sI70
g926
ssI142
(dp1135
I143
(dp1136
sI213
(dp1137
sI71
g929
ssI143
(dp1138
I72
g931
sI144
(dp1139
sI214
(dp1140
sI142
g1136
ssI144
(dp1141
I145
(dp1142
sI73
g934
sI215
(dp1143
sI143
g1139
ssI145
(dp1144
I144
g1142
sI216
(dp1145
sI74
g938
sI146
(dp1146
ssI146
(dp1147
I145
g1146
sI75
g941
sI147
(dp1148
sI217
(dp1149
ssI147
(dp1150
I148
(dp1151
sI146
g1148
sI76
g943
sI218
(dp1152
ssI148
(dp1153
I147
g1151
sI77
g946
sI219
(dp1154
sI149
(dp1155
ssI149
(dp1156
I220
(dp1157
sI148
g1155
sI150
(dp1158
sI78
g949
ssI150
(dp1159
I221
(dp1160
sI151
(dp1161
sI149
g1158
sI79
g953
ssI151
(dp1162
I80
g955
sI152
(dp1163
sI222
(dp1164
sI150
g1161
ssI152
(dp1165
I153
(dp1166
sI81
g958
sI223
(dp1167
sI151
g1163
ssI153
(dp1168
I152
g1166
sI224
(dp1169
sI82
g962
sI154
(dp1170
ssI154
(dp1171
I153
g1170
sI83
g965
sI155
(dp1172
sI225
(dp1173
ssI155
(dp1174
I156
(dp1175
sI154
g1172
sI84
g967
sI226
(dp1176
ssI156
(dp1177
I157
(dp1178
sI155
g1175
sI85
g970
sI227
(dp1179
ssI157
(dp1180
I228
(dp1181
sI156
g1178
sI158
(dp1182
sI86
g973
ssI158
(dp1183
I229
(dp1184
sI159
(dp1185
sI157
g1182
sI87
g977
ssI159
(dp1186
I88
g979
sI160
(dp1187
sI230
(dp1188
sI158
g1185
ssI160
(dp1189
I89
g982
sI231
(dp1190
sI161
(dp1191
sI159
g1187
ssI161
(dp1192
I160
g1191
sI232
(dp1193
sI90
g986
sI162
(dp1194
ssI162
(dp1195
I161
g1194
sI91
g989
sI163
(dp1196
sI233
(dp1197
ssI163
(dp1198
I164
(dp1199
sI162
g1196
sI92
g991
sI234
(dp1200
ssI164
(dp1201
I165
(dp1202
sI163
g1199
sI93
g994
sI235
(dp1203
ssI165
(dp1204
I236
(dp1205
sI164
g1202
sI166
(dp1206
sI94
g997
ssI166
(dp1207
I167
(dp1208
sI237
(dp1209
sI165
g1206
sI95
g1001
ssI167
(dp1210
I96
g1003
sI168
(dp1211
sI238
(dp1212
sI166
g1208
ssI168
(dp1213
I97
g1006
sI239
(dp1214
sI169
(dp1215
sI167
g1211
ssI169
(dp1216
I168
g1215
sI240
(dp1217
sI98
g1010
sI170
(dp1218
ssI170
(dp1219
I169
g1218
sI99
g1013
sI171
(dp1220
sI241
(dp1221
ssI171
(dp1222
I172
(dp1223
sI170
g1220
sI100
g1015
sI242
(dp1224
ssI172
(dp1225
I173
(dp1226
sI171
g1223
sI101
g1018
sI243
(dp1227
ssI173
(dp1228
I244
(dp1229
sI172
g1226
sI174
(dp1230
sI102
g1021
ssI174
(dp1231
I175
(dp1232
sI245
(dp1233
sI173
g1230
sI103
g1025
ssI175
(dp1234
I104
g1027
sI176
(dp1235
sI246
(dp1236
sI174
g1232
ssI176
(dp1237
I105
g1030
sI247
(dp1238
sI175
g1235
ssI178
(dp1239
I249
(dp1240
sI107
g1033
sI179
(dp1241
ssI179
(dp1242
I180
(dp1243
sI178
g1241
sI108
g1035
sI250
(dp1244
ssI180
(dp1245
I181
(dp1246
sI179
g1243
sI109
g1038
sI251
(dp1247
ssI181
(dp1248
I252
(dp1249
sI180
g1246
sI182
(dp1250
sI110
g1041
ssI182
(dp1251
I183
(dp1252
sI253
(dp1253
sI181
g1250
sI111
g1045
ssI183
(dp1254
I112
g1047
sI184
(dp1255
sI254
(dp1256
sI182
g1252
ssI184
(dp1257
I113
g1050
sI255
(dp1258
sI185
(dp1259
sI183
g1255
ssI185
(dp1260
I184
g1259
sI256
(dp1261
sI114
g1054
sI186
(dp1262
ssI186
(dp1263
I185
g1262
sI115
g1057
sI187
(dp1264
sI257
(dp1265
ssI187
(dp1266
I188
(dp1267
sI186
g1264
sI116
g1059
sI258
(dp1268
ssI188
(dp1269
I259
(dp1270
sI187
g1267
sI117
g1062
sI189
(dp1271
ssI189
(dp1272
I260
(dp1273
sI188
g1271
sI190
(dp1274
sI118
g1065
ssI190
(dp1275
I191
(dp1276
sI261
(dp1277
sI189
g1274
sI119
g1069
ssI191
(dp1278
I120
g1071
sI192
(dp1279
sI262
(dp1280
sI190
g1276
ssI192
(dp1281
I121
g1074
sI193
(dp1282
sI263
(dp1283
sI191
g1279
ssI193
(dp1284
I192
g1282
sI264
(dp1285
sI122
g1078
sI194
(dp1286
ssI194
(dp1287
I193
g1286
sI123
g1081
sI195
(dp1288
sI265
(dp1289
ssI195
(dp1290
I196
(dp1291
sI194
g1288
sI124
g1083
sI266
(dp1292
ssI196
(dp1293
I267
(dp1294
sI195
g1291
sI125
g1086
sI197
(dp1295
ssI197
(dp1296
I268
(dp1297
sI196
g1295
sI198
(dp1298
sI126
g1089
ssI198
(dp1299
I199
(dp1300
sI269
(dp1301
sI197
g1298
sI127
g1093
ssI199
(dp1302
I128
g1096
sI200
(dp1303
sI270
(dp1304
sI198
g1300
ssI200
(dp1305
I129
g1098
sI201
(dp1306
sI271
(dp1307
sI199
g1303
ssI201
(dp1308
I200
g1306
sI272
(dp1309
sI130
g1102
sI202
(dp1310
ssI202
(dp1311
I201
g1310
sI131
g1105
sI203
(dp1312
sI273
(dp1313
ssI203
(dp1314
I204
(dp1315
sI202
g1312
sI132
g1107
sI274
(dp1316
ssI204
(dp1317
I275
(dp1318
sI203
g1315
sI133
g1110
sI205
(dp1319
ssI205
(dp1320
I276
(dp1321
sI204
g1319
sI206
(dp1322
sI134
g1113
ssI206
(dp1323
I207
(dp1324
sI277
(dp1325
sI205
g1322
sI135
g1117
ssI207
(dp1326
I136
g1120
sI208
(dp1327
sI278
(dp1328
sI206
g1324
ssI208
(dp1329
I137
g1122
sI209
(dp1330
sI279
(dp1331
sI207
g1327
ssI209
(dp1332
I208
g1330
sI280
(dp1333
sI138
g1126
sI210
(dp1334
ssI210
(dp1335
I209
g1334
sI139
g1129
sI211
(dp1336
sI281
(dp1337
ssI211
(dp1338
I212
(dp1339
sI210
g1336
sI140
g1131
sI282
(dp1340
ssI212
(dp1341
I283
(dp1342
sI211
g1339
sI141
g1134
ssI213
(dp1343
I284
(dp1344
sI214
(dp1345
sI142
g1137
ssI214
(dp1346
I215
(dp1347
sI285
(dp1348
sI213
g1345
sI143
g1140
ssI215
(dp1349
I144
g1143
sI216
(dp1350
sI286
(dp1351
sI214
g1347
ssI216
(dp1352
I145
g1145
sI217
(dp1353
sI287
(dp1354
sI215
g1350
ssI217
(dp1355
I216
g1353
sI288
(dp1356
sI146
g1149
sI218
(dp1357
ssI218
(dp1358
I217
g1357
sI147
g1152
sI219
(dp1359
sI289
(dp1360
ssI219
(dp1361
I220
(dp1362
sI218
g1359
sI148
g1154
sI290
(dp1363
ssI220
(dp1364
I291
(dp1365
sI219
g1362
sI149
g1157
sI221
(dp1366
ssI221
(dp1367
I292
(dp1368
sI220
g1366
sI222
(dp1369
sI150
g1160
ssI222
(dp1370
I293
(dp1371
sI223
(dp1372
sI221
g1369
sI151
g1164
ssI223
(dp1373
I152
g1167
sI224
(dp1374
sI294
(dp1375
sI222
g1372
ssI224
(dp1376
I225
(dp1377
sI153
g1169
sI295
(dp1378
sI223
g1374
ssI225
(dp1379
I224
g1377
sI296
(dp1380
sI154
g1173
sI226
(dp1381
ssI226
(dp1382
I225
g1381
sI155
g1176
sI227
(dp1383
sI297
(dp1384
ssI227
(dp1385
I228
(dp1386
sI226
g1383
sI156
g1179
sI298
(dp1387
ssI228
(dp1388
I299
(dp1389
sI227
g1386
sI157
g1181
sI229
(dp1390
ssI229
(dp1391
I300
(dp1392
sI228
g1390
sI230
(dp1393
sI158
g1184
ssI230
(dp1394
I301
(dp1395
sI231
(dp1396
sI229
g1393
sI159
g1188
ssI231
(dp1397
I160
g1190
sI232
(dp1398
sI302
(dp1399
sI230
g1396
ssI232
(dp1400
I233
(dp1401
sI161
g1193
sI303
(dp1402
sI231
g1398
ssI233
(dp1403
I232
g1401
sI304
(dp1404
sI162
g1197
sI234
(dp1405
ssI234
(dp1406
I233
g1405
sI163
g1200
sI235
(dp1407
sI305
(dp1408
ssI235
(dp1409
I236
(dp1410
sI234
g1407
sI164
g1203
sI306
(dp1411
ssI236
(dp1412
I307
(dp1413
sI235
g1410
sI165
g1205
sI237
(dp1414
ssI237
(dp1415
I308
(dp1416
sI236
g1414
sI238
(dp1417
sI166
g1209
ssI238
(dp1418
I309
(dp1419
sI239
(dp1420
sI237
g1417
sI167
g1212
ssI239
(dp1421
I168
g1214
sI240
(dp1422
sI310
(dp1423
sI238
g1420
ssI240
(dp1424
I241
(dp1425
sI169
g1217
sI311
(dp1426
sI239
g1422
ssI241
(dp1427
I240
g1425
sI312
(dp1428
sI170
g1221
sI242
(dp1429
ssI242
(dp1430
I241
g1429
sI171
g1224
sI243
(dp1431
sI313
(dp1432
ssI243
(dp1433
I244
(dp1434
sI242
g1431
sI172
g1227
sI314
(dp1435
ssI244
(dp1436
I315
(dp1437
sI243
g1434
sI173
g1229
sI245
(dp1438
ssI245
(dp1439
I316
(dp1440
sI244
g1438
sI246
(dp1441
sI174
g1233
ssI246
(dp1442
I317
(dp1443
sI247
(dp1444
sI245
g1441
sI175
g1236
ssI247
(dp1445
I176
g1238
sI318
(dp1446
sI246
g1444
ssI249
(dp1447
I320
(dp1448
sI178
g1240
sI250
(dp1449
ssI250
(dp1450
I249
g1449
sI179
g1244
sI251
(dp1451
sI321
(dp1452
ssI251
(dp1453
I252
(dp1454
sI250
g1451
sI180
g1247
sI322
(dp1455
ssI252
(dp1456
I323
(dp1457
sI251
g1454
sI181
g1249
sI253
(dp1458
ssI253
(dp1459
I324
(dp1460
sI252
g1458
sI254
(dp1461
sI182
g1253
ssI254
(dp1462
I255
(dp1463
sI253
g1461
sI325
(dp1464
sI183
g1256
ssI255
(dp1465
I184
g1258
sI256
(dp1466
sI326
(dp1467
sI254
g1463
ssI256
(dp1468
I185
g1261
sI327
(dp1469
sI257
(dp1470
sI255
g1466
ssI257
(dp1471
I256
g1470
sI328
(dp1472
sI186
g1265
sI258
(dp1473
ssI258
(dp1474
I259
(dp1475
sI257
g1473
sI187
g1268
sI329
(dp1476
ssI259
(dp1477
I260
(dp1478
sI258
g1475
sI188
g1270
sI330
(dp1479
ssI260
(dp1480
I331
(dp1481
sI259
g1478
sI189
g1273
sI261
(dp1482
ssI261
(dp1483
I332
(dp1484
sI260
g1482
sI262
(dp1485
sI190
g1277
ssI262
(dp1486
I263
(dp1487
sI261
g1485
sI333
(dp1488
sI191
g1280
ssI263
(dp1489
I192
g1283
sI264
(dp1490
sI334
(dp1491
sI262
g1487
ssI264
(dp1492
I193
g1285
sI335
(dp1493
sI265
(dp1494
sI263
g1490
ssI265
(dp1495
I264
g1494
sI336
(dp1496
sI194
g1289
sI266
(dp1497
ssI266
(dp1498
I267
(dp1499
sI265
g1497
sI195
g1292
sI337
(dp1500
ssI267
(dp1501
I268
(dp1502
sI266
g1499
sI196
g1294
sI338
(dp1503
ssI268
(dp1504
I339
(dp1505
sI267
g1502
sI197
g1297
sI269
(dp1506
ssI269
(dp1507
I340
(dp1508
sI268
g1506
sI270
(dp1509
sI198
g1301
ssI270
(dp1510
I271
(dp1511
sI269
g1509
sI341
(dp1512
sI199
g1304
ssI271
(dp1513
I200
g1307
sI272
(dp1514
sI342
(dp1515
sI270
g1511
ssI272
(dp1516
I201
g1309
sI343
(dp1517
sI273
(dp1518
sI271
g1514
ssI273
(dp1519
I272
g1518
sI344
(dp1520
sI202
g1313
sI274
(dp1521
ssI274
(dp1522
I275
(dp1523
sI273
g1521
sI203
g1316
sI345
(dp1524
ssI275
(dp1525
I276
(dp1526
sI274
g1523
sI204
g1318
sI346
(dp1527
ssI276
(dp1528
I347
(dp1529
sI275
g1526
sI205
g1321
sI277
(dp1530
ssI277
(dp1531
I348
(dp1532
sI276
g1530
sI278
(dp1533
sI206
g1325
ssI278
(dp1534
I279
(dp1535
sI277
g1533
sI349
(dp1536
sI207
g1328
ssI279
(dp1537
I208
g1331
sI280
(dp1538
sI350
(dp1539
sI278
g1535
ssI280
(dp1540
I209
g1333
sI351
(dp1541
sI281
(dp1542
sI279
g1538
ssI281
(dp1543
I280
g1542
sI352
(dp1544
sI210
g1337
sI282
(dp1545
ssI282
(dp1546
I283
(dp1547
sI281
g1545
sI211
g1340
sI353
(dp1548
ssI283
(dp1549
I282
g1547
sI212
g1342
sI354
(dp1550
ssI284
(dp1551
I355
(dp1552
sI213
g1344
sI285
(dp1553
ssI285
(dp1554
I356
(dp1555
sI284
g1553
sI286
(dp1556
sI214
g1348
ssI286
(dp1557
I287
(dp1558
sI357
(dp1559
sI285
g1556
sI215
g1351
ssI287
(dp1560
I216
g1354
sI288
(dp1561
sI358
(dp1562
sI286
g1558
ssI288
(dp1563
I217
g1356
sI359
(dp1564
sI289
(dp1565
sI287
g1561
ssI289
(dp1566
I288
g1565
sI360
(dp1567
sI218
g1360
sI290
(dp1568
ssI290
(dp1569
I289
g1568
sI219
g1363
sI291
(dp1570
sI361
(dp1571
ssI291
(dp1572
I292
(dp1573
sI290
g1570
sI220
g1365
sI362
(dp1574
ssI292
(dp1575
I363
(dp1576
sI291
g1573
sI221
g1368
sI293
(dp1577
ssI293
(dp1578
I364
(dp1579
sI292
g1577
sI294
(dp1580
sI222
g1371
ssI294
(dp1581
I295
(dp1582
sI365
(dp1583
sI293
g1580
sI223
g1375
ssI295
(dp1584
I224
g1378
sI296
(dp1585
sI366
(dp1586
sI294
g1582
ssI296
(dp1587
I225
g1380
sI367
(dp1588
sI297
(dp1589
sI295
g1585
ssI297
(dp1590
I296
g1589
sI368
(dp1591
sI226
g1384
sI298
(dp1592
ssI298
(dp1593
I297
g1592
sI227
g1387
sI299
(dp1594
sI369
(dp1595
ssI299
(dp1596
I300
(dp1597
sI298
g1594
sI228
g1389
sI370
(dp1598
ssI300
(dp1599
I371
(dp1600
sI299
g1597
sI229
g1392
sI301
(dp1601
ssI301
(dp1602
I372
(dp1603
sI300
g1601
sI302
(dp1604
sI230
g1395
ssI302
(dp1605
I303
(dp1606
sI373
(dp1607
sI301
g1604
sI231
g1399
ssI303
(dp1608
I232
g1402
sI304
(dp1609
sI374
(dp1610
sI302
g1606
ssI304
(dp1611
I233
g1404
sI375
(dp1612
sI305
(dp1613
sI303
g1609
ssI305
(dp1614
I304
g1613
sI376
(dp1615
sI234
g1408
sI306
(dp1616
ssI306
(dp1617
I305
g1616
sI235
g1411
sI307
(dp1618
sI377
(dp1619
ssI307
(dp1620
I308
(dp1621
sI306
g1618
sI236
g1413
sI378
(dp1622
ssI308
(dp1623
I379
(dp1624
sI307
g1621
sI237
g1416
sI309
(dp1625
ssI309
(dp1626
I380
(dp1627
sI308
g1625
sI310
(dp1628
sI238
g1419
ssI310
(dp1629
I311
(dp1630
sI381
(dp1631
sI309
g1628
sI239
g1423
ssI311
(dp1632
I240
g1426
sI312
(dp1633
sI382
(dp1634
sI310
g1630
ssI312
(dp1635
I241
g1428
sI383
(dp1636
sI313
(dp1637
sI311
g1633
ssI313
(dp1638
I312
g1637
sI384
(dp1639
sI242
g1432
sI314
(dp1640
ssI314
(dp1641
I313
g1640
sI243
g1435
sI315
(dp1642
sI385
(dp1643
ssI315
(dp1644
I316
(dp1645
sI314
g1642
sI244
g1437
sI386
(dp1646
ssI316
(dp1647
I315
g1645
sI387
(dp1648
sI245
g1440
sI317
(dp1649
ssI317
(dp1650
I388
(dp1651
sI316
g1649
sI318
(dp1652
sI246
g1443
ssI318
(dp1653
I389
(dp1654
sI319
(dp1655
sI317
g1652
sI247
g1446
ssI319
(dp1656
I320
(dp1657
sI390
(dp1658
sI318
g1655
ssI320
(dp1659
I249
g1448
sI391
(dp1660
sI321
(dp1661
sI319
g1657
ssI321
(dp1662
I320
g1661
sI392
(dp1663
sI250
g1452
sI322
(dp1664
ssI322
(dp1665
I321
g1664
sI323
(dp1666
sI251
g1455
sI393
(dp1667
ssI323
(dp1668
I324
(dp1669
sI322
g1666
sI252
g1457
sI394
(dp1670
ssI324
(dp1671
I323
g1669
sI395
(dp1672
sI253
g1460
sI325
(dp1673
ssI325
(dp1674
I396
(dp1675
sI324
g1673
sI326
(dp1676
sI254
g1464
ssI326
(dp1677
I397
(dp1678
sI327
(dp1679
sI325
g1676
sI255
g1467
ssI327
(dp1680
I256
g1469
sI328
(dp1681
sI398
(dp1682
sI326
g1679
ssI328
(dp1683
I257
g1472
sI399
(dp1684
sI329
(dp1685
sI327
g1681
ssI329
(dp1686
I328
g1685
sI400
(dp1687
sI258
g1476
sI330
(dp1688
ssI330
(dp1689
I329
g1688
sI331
(dp1690
sI259
g1479
sI401
(dp1691
ssI331
(dp1692
I332
(dp1693
sI330
g1690
sI260
g1481
sI402
(dp1694
ssI332
(dp1695
I331
g1693
sI403
(dp1696
sI261
g1484
sI333
(dp1697
ssI333
(dp1698
I404
(dp1699
sI332
g1697
sI334
(dp1700
sI262
g1488
ssI334
(dp1701
I405
(dp1702
sI335
(dp1703
sI333
g1700
sI263
g1491
ssI335
(dp1704
I264
g1493
sI336
(dp1705
sI406
(dp1706
sI334
g1703
ssI336
(dp1707
I265
g1496
sI407
(dp1708
sI337
(dp1709
sI335
g1705
ssI337
(dp1710
I336
g1709
sI408
(dp1711
sI266
g1500
sI338
(dp1712
ssI338
(dp1713
I337
g1712
sI339
(dp1714
sI267
g1503
sI409
(dp1715
ssI339
(dp1716
I340
(dp1717
sI338
g1714
sI268
g1505
sI410
(dp1718
ssI340
(dp1719
I339
g1717
sI411
(dp1720
sI269
g1508
sI341
(dp1721
ssI341
(dp1722
I412
(dp1723
sI340
g1721
sI342
(dp1724
sI270
g1512
ssI342
(dp1725
I413
(dp1726
sI343
(dp1727
sI341
g1724
sI271
g1515
ssI343
(dp1728
I272
g1517
sI344
(dp1729
sI414
(dp1730
sI342
g1727
ssI344
(dp1731
I273
g1520
sI415
(dp1732
sI345
(dp1733
sI343
g1729
ssI345
(dp1734
I344
g1733
sI416
(dp1735
sI274
g1524
sI346
(dp1736
ssI346
(dp1737
I345
g1736
sI347
(dp1738
sI275
g1527
sI417
(dp1739
ssI347
(dp1740
I348
(dp1741
sI346
g1738
sI276
g1529
sI418
(dp1742
ssI348
(dp1743
I419
(dp1744
sI347
g1741
sI277
g1532
sI349
(dp1745
ssI349
(dp1746
I420
(dp1747
sI348
g1745
sI350
(dp1748
sI278
g1536
ssI350
(dp1749
I421
(dp1750
sI351
(dp1751
sI349
g1748
sI279
g1539
ssI351
(dp1752
I280
g1541
sI352
(dp1753
sI422
(dp1754
sI350
g1751
ssI352
(dp1755
I281
g1544
sI423
(dp1756
sI353
(dp1757
sI351
g1753
ssI353
(dp1758
I352
g1757
sI424
(dp1759
sI282
g1548
sI354
(dp1760
ssI354
(dp1761
I353
g1760
sI283
g1550
sI425
(dp1762
ssI355
(dp1763
I356
(dp1764
sI426
(dp1765
sI284
g1552
ssI356
(dp1766
I427
(dp1767
sI355
g1764
sI285
g1555
sI357
(dp1768
ssI357
(dp1769
I428
(dp1770
sI356
g1768
sI358
(dp1771
sI286
g1559
ssI358
(dp1772
I429
(dp1773
sI359
(dp1774
sI357
g1771
sI287
g1562
ssI359
(dp1775
I288
g1564
sI360
(dp1776
sI430
(dp1777
sI358
g1774
ssI360
(dp1778
I289
g1567
sI431
(dp1779
sI361
(dp1780
sI359
g1776
ssI361
(dp1781
I360
g1780
sI432
(dp1782
sI290
g1571
sI362
(dp1783
ssI362
(dp1784
I363
(dp1785
sI361
g1783
sI291
g1574
sI433
(dp1786
ssI363
(dp1787
I364
(dp1788
sI362
g1785
sI292
g1576
sI434
(dp1789
ssI364
(dp1790
I435
(dp1791
sI363
g1788
sI293
g1579
sI365
(dp1792
ssI365
(dp1793
I436
(dp1794
sI364
g1792
sI366
(dp1795
sI294
g1583
ssI366
(dp1796
I437
(dp1797
sI367
(dp1798
sI365
g1795
sI295
g1586
ssI367
(dp1799
I296
g1588
sI368
(dp1800
sI438
(dp1801
sI366
g1798
ssI368
(dp1802
I297
g1591
sI439
(dp1803
sI369
(dp1804
sI367
g1800
ssI369
(dp1805
I368
g1804
sI440
(dp1806
sI298
g1595
sI370
(dp1807
ssI370
(dp1808
I371
(dp1809
sI369
g1807
sI299
g1598
sI441
(dp1810
ssI371
(dp1811
I372
(dp1812
sI370
g1809
sI300
g1600
sI442
(dp1813
ssI372
(dp1814
I443
(dp1815
sI371
g1812
sI301
g1603
sI373
(dp1816
ssI373
(dp1817
I444
(dp1818
sI372
g1816
sI374
(dp1819
sI302
g1607
ssI374
(dp1820
I445
(dp1821
sI375
(dp1822
sI373
g1819
sI303
g1610
ssI375
(dp1823
I304
g1612
sI376
(dp1824
sI446
(dp1825
sI374
g1822
ssI376
(dp1826
I305
g1615
sI447
(dp1827
sI377
(dp1828
sI375
g1824
ssI377
(dp1829
I376
g1828
sI448
(dp1830
sI306
g1619
sI378
(dp1831
ssI378
(dp1832
I379
(dp1833
sI377
g1831
sI307
g1622
sI449
(dp1834
ssI379
(dp1835
I380
(dp1836
sI378
g1833
sI308
g1624
sI450
(dp1837
ssI380
(dp1838
I379
g1836
sI309
g1627
sI451
(dp1839
sI381
(dp1840
ssI381
(dp1841
I452
(dp1842
sI380
g1840
sI382
(dp1843
sI310
g1631
ssI382
(dp1844
I453
(dp1845
sI383
(dp1846
sI381
g1843
sI311
g1634
ssI383
(dp1847
I312
g1636
sI384
(dp1848
sI454
(dp1849
sI382
g1846
ssI384
(dp1850
I385
(dp1851
sI313
g1639
sI455
(dp1852
sI383
g1848
ssI385
(dp1853
I384
g1851
sI456
(dp1854
sI314
g1643
sI386
(dp1855
ssI386
(dp1856
I385
g1855
sI315
g1646
sI387
(dp1857
sI457
(dp1858
ssI387
(dp1859
I388
(dp1860
sI386
g1857
sI316
g1648
sI458
(dp1861
ssI388
(dp1862
I387
g1860
sI317
g1651
sI459
(dp1863
sI389
(dp1864
ssI389
(dp1865
I460
(dp1866
sI388
g1864
sI390
(dp1867
sI318
g1654
ssI390
(dp1868
I391
(dp1869
sI389
g1867
sI319
g1658
ssI391
(dp1870
I320
g1660
sI392
(dp1871
sI462
(dp1872
sI390
g1869
ssI392
(dp1873
I393
(dp1874
sI321
g1663
sI463
(dp1875
sI391
g1871
ssI393
(dp1876
I392
g1874
sI464
(dp1877
sI322
g1667
sI394
(dp1878
ssI394
(dp1879
I393
g1878
sI323
g1670
sI395
(dp1880
sI465
(dp1881
ssI395
(dp1882
I396
(dp1883
sI394
g1880
sI324
g1672
sI466
(dp1884
ssI396
(dp1885
I395
g1883
sI325
g1675
sI467
(dp1886
sI397
(dp1887
ssI397
(dp1888
I468
(dp1889
sI396
g1887
sI398
(dp1890
sI326
g1678
ssI398
(dp1891
I469
(dp1892
sI399
(dp1893
sI397
g1890
sI327
g1682
ssI399
(dp1894
I328
g1684
sI400
(dp1895
sI470
(dp1896
sI398
g1893
ssI400
(dp1897
I401
(dp1898
sI329
g1687
sI471
(dp1899
sI399
g1895
ssI401
(dp1900
I400
g1898
sI472
(dp1901
sI330
g1691
sI402
(dp1902
ssI402
(dp1903
I401
g1902
sI331
g1694
sI403
(dp1904
sI473
(dp1905
ssI403
(dp1906
I404
(dp1907
sI402
g1904
sI332
g1696
sI474
(dp1908
ssI404
(dp1909
I403
g1907
sI333
g1699
sI475
(dp1910
sI405
(dp1911
ssI405
(dp1912
I476
(dp1913
sI404
g1911
sI406
(dp1914
sI334
g1702
ssI406
(dp1915
I477
(dp1916
sI407
(dp1917
sI405
g1914
sI335
g1706
ssI407
(dp1918
I336
g1708
sI408
(dp1919
sI478
(dp1920
sI406
g1917
ssI408
(dp1921
I409
(dp1922
sI337
g1711
sI479
(dp1923
sI407
g1919
ssI409
(dp1924
I408
g1922
sI480
(dp1925
sI338
g1715
sI410
(dp1926
ssI410
(dp1927
I409
g1926
sI339
g1718
sI411
(dp1928
sI481
(dp1929
ssI411
(dp1930
I412
(dp1931
sI410
g1928
sI340
g1720
sI482
(dp1932
ssI412
(dp1933
I413
(dp1934
sI411
g1931
sI341
g1723
sI483
(dp1935
ssI413
(dp1936
I484
(dp1937
sI412
g1934
sI414
(dp1938
sI342
g1726
ssI414
(dp1939
I485
(dp1940
sI415
(dp1941
sI413
g1938
sI343
g1730
ssI415
(dp1942
I344
g1732
sI416
(dp1943
sI486
(dp1944
sI414
g1941
ssI416
(dp1945
I345
g1735
sI487
(dp1946
sI417
(dp1947
sI415
g1943
ssI417
(dp1948
I416
g1947
sI488
(dp1949
sI346
g1739
sI418
(dp1950
ssI418
(dp1951
I417
g1950
sI347
g1742
sI419
(dp1952
sI489
(dp1953
ssI419
(dp1954
I420
(dp1955
sI418
g1952
sI348
g1744
sI490
(dp1956
ssI420
(dp1957
I421
(dp1958
sI419
g1955
sI349
g1747
sI491
(dp1959
ssI421
(dp1960
I492
(dp1961
sI420
g1958
sI422
(dp1962
sI350
g1750
ssI422
(dp1963
I423
(dp1964
sI493
(dp1965
sI421
g1962
sI351
g1754
ssI423
(dp1966
I352
g1756
sI424
(dp1967
sI494
(dp1968
sI422
g1964
ssI424
(dp1969
I353
g1759
sI495
(dp1970
sI425
(dp1971
sI423
g1967
ssI425
(dp1972
I424
g1971
sI496
(dp1973
sI354
g1762
ssI426
(dp1974
I497
(dp1975
sI355
g1765
sI427
(dp1976
ssI427
(dp1977
I428
(dp1978
sI426
g1976
sI356
g1767
sI498
(dp1979
ssI428
(dp1980
I429
(dp1981
sI427
g1978
sI357
g1770
sI499
(dp1982
ssI429
(dp1983
I500
(dp1984
sI428
g1981
sI430
(dp1985
sI358
g1773
ssI430
(dp1986
I431
(dp1987
sI501
(dp1988
sI429
g1985
sI359
g1777
ssI431
(dp1989
I360
g1779
sI432
(dp1990
sI502
(dp1991
sI430
g1987
ssI432
(dp1992
I361
g1782
sI503
(dp1993
sI433
(dp1994
sI431
g1990
ssI433
(dp1995
I432
g1994
sI504
(dp1996
sI362
g1786
sI434
(dp1997
ssI434
(dp1998
I433
g1997
sI363
g1789
sI435
(dp1999
sI505
(dp2000
ssI435
(dp2001
I436
(dp2002
sI434
g1999
sI364
g1791
sI506
(dp2003
ssI436
(dp2004
I437
(dp2005
sI435
g2002
sI365
g1794
sI507
(dp2006
ssI437
(dp2007
I508
(dp2008
sI436
g2005
sI438
(dp2009
sI366
g1797
ssI438
(dp2010
I439
(dp2011
sI509
(dp2012
sI437
g2009
sI367
g1801
ssI439
(dp2013
I368
g1803
sI440
(dp2014
sI510
(dp2015
sI438
g2011
ssI440
(dp2016
I369
g1806
sI511
(dp2017
sI441
(dp2018
sI439
g2014
ssI441
(dp2019
I440
g2018
sI512
(dp2020
sI370
g1810
sI442
(dp2021
ssI442
(dp2022
I441
g2021
sI371
g1813
sI443
(dp2023
sI513
(dp2024
ssI443
(dp2025
I444
(dp2026
sI442
g2023
sI372
g1815
sI514
(dp2027
ssI444
(dp2028
I515
(dp2029
sI443
g2026
sI373
g1818
sI445
(dp2030
ssI445
(dp2031
I516
(dp2032
sI444
g2030
sI446
(dp2033
sI374
g1821
ssI446
(dp2034
I447
(dp2035
sI517
(dp2036
sI445
g2033
sI375
g1825
ssI447
(dp2037
I376
g1827
sI448
(dp2038
sI518
(dp2039
sI446
g2035
ssI448
(dp2040
I377
g1830
sI449
(dp2041
sI519
(dp2042
sI447
g2038
ssI449
(dp2043
I448
g2041
sI520
(dp2044
sI378
g1834
sI450
(dp2045
ssI450
(dp2046
I449
g2045
sI379
g1837
sI451
(dp2047
sI521
(dp2048
ssI451
(dp2049
I452
(dp2050
sI450
g2047
sI380
g1839
sI522
(dp2051
ssI452
(dp2052
I523
(dp2053
sI451
g2050
sI381
g1842
sI453
(dp2054
ssI453
(dp2055
I524
(dp2056
sI452
g2054
sI454
(dp2057
sI382
g1845
ssI454
(dp2058
I455
(dp2059
sI525
(dp2060
sI453
g2057
sI383
g1849
ssI455
(dp2061
I384
g1852
sI456
(dp2062
sI526
(dp2063
sI454
g2059
ssI456
(dp2064
I385
g1854
sI457
(dp2065
sI527
(dp2066
sI455
g2062
ssI457
(dp2067
I456
g2065
sI528
(dp2068
sI386
g1858
sI458
(dp2069
ssI458
(dp2070
I457
g2069
sI387
g1861
sI459
(dp2071
sI529
(dp2072
ssI459
(dp2073
I460
(dp2074
sI458
g2071
sI388
g1863
sI530
(dp2075
ssI460
(dp2076
I531
(dp2077
sI459
g2074
sI389
g1866
ssI462
(dp2078
I463
(dp2079
sI533
(dp2080
sI391
g1872
ssI463
(dp2081
I392
g1875
sI464
(dp2082
sI534
(dp2083
sI462
g2079
ssI464
(dp2084
I393
g1877
sI465
(dp2085
sI535
(dp2086
sI463
g2082
ssI465
(dp2087
I464
g2085
sI536
(dp2088
sI394
g1881
sI466
(dp2089
ssI466
(dp2090
I465
g2089
sI395
g1884
sI467
(dp2091
sI537
(dp2092
ssI467
(dp2093
I468
(dp2094
sI466
g2091
sI396
g1886
sI538
(dp2095
ssI468
(dp2096
I539
(dp2097
sI467
g2094
sI397
g1889
sI469
(dp2098
ssI469
(dp2099
I540
(dp2100
sI468
g2098
sI470
(dp2101
sI398
g1892
ssI470
(dp2102
I471
(dp2103
sI541
(dp2104
sI469
g2101
sI399
g1896
ssI471
(dp2105
I400
g1899
sI472
(dp2106
sI542
(dp2107
sI470
g2103
ssI472
(dp2108
I401
g1901
sI473
(dp2109
sI543
(dp2110
sI471
g2106
ssI473
(dp2111
I472
g2109
sI544
(dp2112
sI402
g1905
sI474
(dp2113
ssI474
(dp2114
I473
g2113
sI403
g1908
sI475
(dp2115
sI545
(dp2116
ssI475
(dp2117
I476
(dp2118
sI474
g2115
sI404
g1910
sI546
(dp2119
ssI476
(dp2120
I547
(dp2121
sI475
g2118
sI405
g1913
sI477
(dp2122
ssI477
(dp2123
I548
(dp2124
sI476
g2122
sI478
(dp2125
sI406
g1916
ssI478
(dp2126
I549
(dp2127
sI479
(dp2128
sI477
g2125
sI407
g1920
ssI479
(dp2129
I408
g1923
sI480
(dp2130
sI550
(dp2131
sI478
g2128
ssI480
(dp2132
I481
(dp2133
sI409
g1925
sI551
(dp2134
sI479
g2130
ssI481
(dp2135
I480
g2133
sI552
(dp2136
sI410
g1929
sI482
(dp2137
ssI482
(dp2138
I481
g2137
sI411
g1932
sI483
(dp2139
sI553
(dp2140
ssI483
(dp2141
I484
(dp2142
sI482
g2139
sI412
g1935
sI554
(dp2143
ssI484
(dp2144
I555
(dp2145
sI483
g2142
sI413
g1937
sI485
(dp2146
ssI485
(dp2147
I556
(dp2148
sI484
g2146
sI486
(dp2149
sI414
g1940
ssI486
(dp2150
I557
(dp2151
sI487
(dp2152
sI485
g2149
sI415
g1944
ssI487
(dp2153
I416
g1946
sI488
(dp2154
sI558
(dp2155
sI486
g2152
ssI488
(dp2156
I489
(dp2157
sI417
g1949
sI559
(dp2158
sI487
g2154
ssI489
(dp2159
I488
g2157
sI560
(dp2160
sI418
g1953
sI490
(dp2161
ssI490
(dp2162
I489
g2161
sI419
g1956
sI491
(dp2163
sI561
(dp2164
ssI491
(dp2165
I492
(dp2166
sI490
g2163
sI420
g1959
sI562
(dp2167
ssI492
(dp2168
I563
(dp2169
sI491
g2166
sI421
g1961
sI493
(dp2170
ssI493
(dp2171
I564
(dp2172
sI492
g2170
sI494
(dp2173
sI422
g1965
ssI494
(dp2174
I565
(dp2175
sI495
(dp2176
sI493
g2173
sI423
g1968
ssI495
(dp2177
I424
g1970
sI496
(dp2178
sI566
(dp2179
sI494
g2176
ssI496
(dp2180
I425
g1973
sI567
(dp2181
sI495
g2178
ssI497
(dp2182
I568
(dp2183
sI426
g1975
sI498
(dp2184
ssI498
(dp2185
I497
g2184
sI427
g1979
sI499
(dp2186
sI569
(dp2187
ssI499
(dp2188
I500
(dp2189
sI498
g2186
sI428
g1982
sI570
(dp2190
ssI500
(dp2191
I571
(dp2192
sI499
g2189
sI429
g1984
sI501
(dp2193
ssI501
(dp2194
I572
(dp2195
sI500
g2193
sI502
(dp2196
sI430
g1988
ssI502
(dp2197
I573
(dp2198
sI503
(dp2199
sI501
g2196
sI431
g1991
ssI503
(dp2200
I432
g1993
sI504
(dp2201
sI574
(dp2202
sI502
g2199
ssI504
(dp2203
I505
(dp2204
sI433
g1996
sI575
(dp2205
sI503
g2201
ssI505
(dp2206
I504
g2204
sI576
(dp2207
sI434
g2000
sI506
(dp2208
ssI506
(dp2209
I505
g2208
sI435
g2003
sI507
(dp2210
sI577
(dp2211
ssI507
(dp2212
I508
(dp2213
sI506
g2210
sI436
g2006
sI578
(dp2214
ssI508
(dp2215
I579
(dp2216
sI507
g2213
sI437
g2008
sI509
(dp2217
ssI509
(dp2218
I580
(dp2219
sI508
g2217
sI510
(dp2220
sI438
g2012
ssI510
(dp2221
I511
(dp2222
sI509
g2220
sI581
(dp2223
sI439
g2015
ssI511
(dp2224
I440
g2017
sI512
(dp2225
sI582
(dp2226
sI510
g2222
ssI512
(dp2227
I441
g2020
sI583
(dp2228
sI513
(dp2229
sI511
g2225
ssI513
(dp2230
I512
g2229
sI584
(dp2231
sI442
g2024
sI514
(dp2232
ssI514
(dp2233
I515
(dp2234
sI513
g2232
sI443
g2027
sI585
(dp2235
ssI515
(dp2236
I516
(dp2237
sI514
g2234
sI444
g2029
sI586
(dp2238
ssI516
(dp2239
I587
(dp2240
sI515
g2237
sI445
g2032
sI517
(dp2241
ssI517
(dp2242
I588
(dp2243
sI516
g2241
sI518
(dp2244
sI446
g2036
ssI518
(dp2245
I519
(dp2246
sI517
g2244
sI589
(dp2247
sI447
g2039
ssI519
(dp2248
I448
g2042
sI520
(dp2249
sI590
(dp2250
sI518
g2246
ssI520
(dp2251
I449
g2044
sI591
(dp2252
sI521
(dp2253
sI519
g2249
ssI521
(dp2254
I520
g2253
sI592
(dp2255
sI450
g2048
sI522
(dp2256
ssI522
(dp2257
I523
(dp2258
sI521
g2256
sI451
g2051
sI593
(dp2259
ssI523
(dp2260
I524
(dp2261
sI522
g2258
sI452
g2053
sI594
(dp2262
ssI524
(dp2263
I595
(dp2264
sI523
g2261
sI453
g2056
sI525
(dp2265
ssI525
(dp2266
I596
(dp2267
sI524
g2265
sI526
(dp2268
sI454
g2060
ssI526
(dp2269
I527
(dp2270
sI525
g2268
sI597
(dp2271
sI455
g2063
ssI527
(dp2272
I456
g2066
sI528
(dp2273
sI598
(dp2274
sI526
g2270
ssI528
(dp2275
I457
g2068
sI599
(dp2276
sI529
(dp2277
sI527
g2273
ssI529
(dp2278
I528
g2277
sI600
(dp2279
sI458
g2072
sI530
(dp2280
ssI530
(dp2281
I531
(dp2282
sI529
g2280
sI459
g2075
sI601
(dp2283
ssI531
(dp2284
I530
g2282
sI460
g2077
sI602
(dp2285
ssI533
(dp2286
I604
(dp2287
sI534
(dp2288
sI462
g2080
ssI534
(dp2289
I535
(dp2290
sI533
g2288
sI605
(dp2291
sI463
g2083
ssI535
(dp2292
I464
g2086
sI536
(dp2293
sI606
(dp2294
sI534
g2290
ssI536
(dp2295
I465
g2088
sI607
(dp2296
sI537
(dp2297
sI535
g2293
ssI537
(dp2298
I536
g2297
sI608
(dp2299
sI466
g2092
sI538
(dp2300
ssI538
(dp2301
I539
(dp2302
sI537
g2300
sI467
g2095
sI609
(dp2303
ssI539
(dp2304
I540
(dp2305
sI538
g2302
sI468
g2097
sI610
(dp2306
ssI540
(dp2307
I611
(dp2308
sI539
g2305
sI469
g2100
sI541
(dp2309
ssI541
(dp2310
I612
(dp2311
sI540
g2309
sI542
(dp2312
sI470
g2104
ssI542
(dp2313
I543
(dp2314
sI613
(dp2315
sI541
g2312
sI471
g2107
ssI543
(dp2316
I472
g2110
sI544
(dp2317
sI614
(dp2318
sI542
g2314
ssI544
(dp2319
I473
g2112
sI615
(dp2320
sI545
(dp2321
sI543
g2317
ssI545
(dp2322
I544
g2321
sI616
(dp2323
sI474
g2116
sI546
(dp2324
ssI546
(dp2325
I545
g2324
sI475
g2119
sI547
(dp2326
sI617
(dp2327
ssI547
(dp2328
I548
(dp2329
sI546
g2326
sI476
g2121
sI618
(dp2330
ssI548
(dp2331
I619
(dp2332
sI547
g2329
sI477
g2124
sI549
(dp2333
ssI549
(dp2334
I620
(dp2335
sI548
g2333
sI550
(dp2336
sI478
g2127
ssI550
(dp2337
I551
(dp2338
sI621
(dp2339
sI549
g2336
sI479
g2131
ssI551
(dp2340
I480
g2134
sI552
(dp2341
sI622
(dp2342
sI550
g2338
ssI552
(dp2343
I481
g2136
sI623
(dp2344
sI553
(dp2345
sI551
g2341
ssI553
(dp2346
I552
g2345
sI624
(dp2347
sI482
g2140
sI554
(dp2348
ssI554
(dp2349
I553
g2348
sI483
g2143
sI555
(dp2350
sI625
(dp2351
ssI555
(dp2352
I556
(dp2353
sI554
g2350
sI484
g2145
sI626
(dp2354
ssI556
(dp2355
I627
(dp2356
sI555
g2353
sI485
g2148
sI557
(dp2357
ssI557
(dp2358
I628
(dp2359
sI556
g2357
sI558
(dp2360
sI486
g2151
ssI558
(dp2361
I559
(dp2362
sI629
(dp2363
sI557
g2360
sI487
g2155
ssI559
(dp2364
I488
g2158
sI560
(dp2365
sI630
(dp2366
sI558
g2362
ssI560
(dp2367
I489
g2160
sI631
(dp2368
sI561
(dp2369
sI559
g2365
ssI561
(dp2370
I560
g2369
sI632
(dp2371
sI490
g2164
sI562
(dp2372
ssI562
(dp2373
I561
g2372
sI491
g2167
sI563
(dp2374
sI633
(dp2375
ssI563
(dp2376
I564
(dp2377
sI562
g2374
sI492
g2169
sI634
(dp2378
ssI564
(dp2379
I635
(dp2380
sI563
g2377
sI493
g2172
sI565
(dp2381
ssI565
(dp2382
I636
(dp2383
sI564
g2381
sI566
(dp2384
sI494
g2175
ssI566
(dp2385
I567
(dp2386
sI637
(dp2387
sI565
g2384
sI495
g2179
ssI567
(dp2388
I496
g2181
sI638
(dp2389
sI566
g2386
ssI568
(dp2390
I497
g2183
sI569
(dp2391
sI639
(dp2392
ssI569
(dp2393
I568
g2391
sI640
(dp2394
sI498
g2187
sI570
(dp2395
ssI570
(dp2396
I569
g2395
sI499
g2190
sI571
(dp2397
sI641
(dp2398
ssI571
(dp2399
I572
(dp2400
sI570
g2397
sI500
g2192
sI642
(dp2401
ssI572
(dp2402
I571
g2400
sI643
(dp2403
sI501
g2195
sI573
(dp2404
ssI573
(dp2405
I644
(dp2406
sI572
g2404
sI574
(dp2407
sI502
g2198
ssI574
(dp2408
I645
(dp2409
sI575
(dp2410
sI573
g2407
sI503
g2202
ssI575
(dp2411
I504
g2205
sI576
(dp2412
sI646
(dp2413
sI574
g2410
ssI576
(dp2414
I505
g2207
sI647
(dp2415
sI577
(dp2416
sI575
g2412
ssI577
(dp2417
I576
g2416
sI648
(dp2418
sI506
g2211
sI578
(dp2419
ssI578
(dp2420
I577
g2419
sI579
(dp2421
sI507
g2214
sI649
(dp2422
ssI579
(dp2423
I580
(dp2424
sI578
g2421
sI508
g2216
sI650
(dp2425
ssI580
(dp2426
I579
g2424
sI651
(dp2427
sI509
g2219
sI581
(dp2428
ssI581
(dp2429
I652
(dp2430
sI580
g2428
sI582
(dp2431
sI510
g2223
ssI582
(dp2432
I653
(dp2433
sI583
(dp2434
sI581
g2431
sI511
g2226
ssI583
(dp2435
I512
g2228
sI584
(dp2436
sI654
(dp2437
sI582
g2434
ssI584
(dp2438
I513
g2231
sI655
(dp2439
sI585
(dp2440
sI583
g2436
ssI585
(dp2441
I584
g2440
sI656
(dp2442
sI514
g2235
sI586
(dp2443
ssI586
(dp2444
I585
g2443
sI587
(dp2445
sI515
g2238
sI657
(dp2446
ssI587
(dp2447
I588
(dp2448
sI586
g2445
sI516
g2240
sI658
(dp2449
ssI588
(dp2450
I587
g2448
sI659
(dp2451
sI517
g2243
sI589
(dp2452
ssI589
(dp2453
I660
(dp2454
sI588
g2452
sI590
(dp2455
sI518
g2247
ssI590
(dp2456
I661
(dp2457
sI591
(dp2458
sI589
g2455
sI519
g2250
ssI591
(dp2459
I520
g2252
sI592
(dp2460
sI662
(dp2461
sI590
g2458
ssI592
(dp2462
I521
g2255
sI663
(dp2463
sI593
(dp2464
sI591
g2460
ssI593
(dp2465
I592
g2464
sI664
(dp2466
sI522
g2259
sI594
(dp2467
ssI594
(dp2468
I593
g2467
sI595
(dp2469
sI523
g2262
sI665
(dp2470
ssI595
(dp2471
I596
(dp2472
sI594
g2469
sI524
g2264
sI666
(dp2473
ssI596
(dp2474
I595
g2472
sI667
(dp2475
sI525
g2267
sI597
(dp2476
ssI597
(dp2477
I668
(dp2478
sI596
g2476
sI598
(dp2479
sI526
g2271
ssI598
(dp2480
I669
(dp2481
sI599
(dp2482
sI597
g2479
sI527
g2274
ssI599
(dp2483
I528
g2276
sI600
(dp2484
sI670
(dp2485
sI598
g2482
ssI600
(dp2486
I529
g2279
sI671
(dp2487
sI601
(dp2488
sI599
g2484
ssI601
(dp2489
I600
g2488
sI672
(dp2490
sI530
g2283
sI602
(dp2491
ssI602
(dp2492
I601
g2491
sI531
g2285
sI673
(dp2493
ssI604
(dp2494
I675
(dp2495
sI533
g2287
sI605
(dp2496
ssI605
(dp2497
I676
(dp2498
sI604
g2496
sI606
(dp2499
sI534
g2291
ssI606
(dp2500
I677
(dp2501
sI607
(dp2502
sI605
g2499
sI535
g2294
ssI607
(dp2503
I536
g2296
sI608
(dp2504
sI678
(dp2505
sI606
g2502
ssI608
(dp2506
I537
g2299
sI679
(dp2507
sI609
(dp2508
sI607
g2504
ssI609
(dp2509
I608
g2508
sI680
(dp2510
sI538
g2303
sI610
(dp2511
ssI610
(dp2512
I611
(dp2513
sI609
g2511
sI539
g2306
sI681
(dp2514
ssI611
(dp2515
I612
(dp2516
sI610
g2513
sI540
g2308
sI682
(dp2517
ssI612
(dp2518
I683
(dp2519
sI611
g2516
sI541
g2311
sI613
(dp2520
ssI613
(dp2521
I684
(dp2522
sI612
g2520
sI614
(dp2523
sI542
g2315
ssI614
(dp2524
I685
(dp2525
sI615
(dp2526
sI613
g2523
sI543
g2318
ssI615
(dp2527
I544
g2320
sI616
(dp2528
sI686
(dp2529
sI614
g2526
ssI616
(dp2530
I545
g2323
sI687
(dp2531
sI617
(dp2532
sI615
g2528
ssI617
(dp2533
I616
g2532
sI688
(dp2534
sI546
g2327
sI618
(dp2535
ssI618
(dp2536
I619
(dp2537
sI617
g2535
sI547
g2330
sI689
(dp2538
ssI619
(dp2539
I620
(dp2540
sI618
g2537
sI548
g2332
sI690
(dp2541
ssI620
(dp2542
I691
(dp2543
sI619
g2540
sI549
g2335
sI621
(dp2544
ssI621
(dp2545
I692
(dp2546
sI620
g2544
sI622
(dp2547
sI550
g2339
ssI622
(dp2548
I693
(dp2549
sI623
(dp2550
sI621
g2547
sI551
g2342
ssI623
(dp2551
I552
g2344
sI624
(dp2552
sI694
(dp2553
sI622
g2550
ssI624
(dp2554
I553
g2347
sI695
(dp2555
sI625
(dp2556
sI623
g2552
ssI625
(dp2557
I624
g2556
sI696
(dp2558
sI554
g2351
sI626
(dp2559
ssI626
(dp2560
I627
(dp2561
sI625
g2559
sI555
g2354
sI697
(dp2562
ssI627
(dp2563
I628
(dp2564
sI626
g2561
sI556
g2356
sI698
(dp2565
ssI628
(dp2566
I699
(dp2567
sI627
g2564
sI557
g2359
sI629
(dp2568
ssI629
(dp2569
I700
(dp2570
sI628
g2568
sI630
(dp2571
sI558
g2363
ssI630
(dp2572
I701
(dp2573
sI631
(dp2574
sI629
g2571
sI559
g2366
ssI631
(dp2575
I560
g2368
sI632
(dp2576
sI702
(dp2577
sI630
g2574
ssI632
(dp2578
I561
g2371
sI703
(dp2579
sI633
(dp2580
sI631
g2576
ssI633
(dp2581
I632
g2580
sI704
(dp2582
sI562
g2375
sI634
(dp2583
ssI634
(dp2584
I635
(dp2585
sI633
g2583
sI563
g2378
sI705
(dp2586
ssI635
(dp2587
I636
(dp2588
sI634
g2585
sI564
g2380
sI706
(dp2589
ssI636
(dp2590
I635
g2588
sI565
g2383
sI707
(dp2591
sI637
(dp2592
ssI637
(dp2593
I708
(dp2594
sI636
g2592
sI638
(dp2595
sI566
g2387
ssI638
(dp2596
I709
(dp2597
sI637
g2595
sI567
g2389
ssI639
(dp2598
I568
g2392
sI640
(dp2599
ssI640
(dp2600
I641
(dp2601
sI569
g2394
sI639
g2599
ssI641
(dp2602
I640
g2601
sI570
g2398
sI642
(dp2603
ssI642
(dp2604
I641
g2603
sI571
g2401
sI643
(dp2605
ssI643
(dp2606
I644
(dp2607
sI642
g2605
sI572
g2403
ssI644
(dp2608
I643
g2607
sI573
g2406
sI645
(dp2609
ssI645
(dp2610
I644
g2609
sI646
(dp2611
sI574
g2409
ssI646
(dp2612
I647
(dp2613
sI645
g2611
sI575
g2413
ssI647
(dp2614
I576
g2415
sI648
(dp2615
sI646
g2613
ssI648
(dp2616
I649
(dp2617
sI577
g2418
sI647
g2615
ssI649
(dp2618
I648
g2617
sI578
g2422
sI650
(dp2619
ssI650
(dp2620
I649
g2619
sI579
g2425
sI651
(dp2621
ssI651
(dp2622
I652
(dp2623
sI650
g2621
sI580
g2427
ssI652
(dp2624
I651
g2623
sI581
g2430
sI653
(dp2625
ssI653
(dp2626
I652
g2625
sI654
(dp2627
sI582
g2433
ssI654
(dp2628
I655
(dp2629
sI653
g2627
sI583
g2437
ssI655
(dp2630
I584
g2439
sI656
(dp2631
sI654
g2629
ssI656
(dp2632
I657
(dp2633
sI585
g2442
sI655
g2631
ssI657
(dp2634
I656
g2633
sI586
g2446
sI658
(dp2635
ssI658
(dp2636
I657
g2635
sI587
g2449
sI659
(dp2637
ssI659
(dp2638
I660
(dp2639
sI658
g2637
sI588
g2451
ssI660
(dp2640
I659
g2639
sI589
g2454
sI661
(dp2641
ssI661
(dp2642
I660
g2641
sI662
(dp2643
sI590
g2457
ssI662
(dp2644
I663
(dp2645
sI661
g2643
sI591
g2461
ssI663
(dp2646
I592
g2463
sI664
(dp2647
sI662
g2645
ssI664
(dp2648
I665
(dp2649
sI593
g2466
sI663
g2647
ssI665
(dp2650
I664
g2649
sI594
g2470
sI666
(dp2651
ssI666
(dp2652
I665
g2651
sI595
g2473
sI667
(dp2653
ssI667
(dp2654
I668
(dp2655
sI666
g2653
sI596
g2475
ssI668
(dp2656
I667
g2655
sI597
g2478
sI669
(dp2657
ssI669
(dp2658
I668
g2657
sI670
(dp2659
sI598
g2481
ssI670
(dp2660
I671
(dp2661
sI669
g2659
sI599
g2485
ssI671
(dp2662
I600
g2487
sI672
(dp2663
sI670
g2661
ssI672
(dp2664
I601
g2490
sI673
(dp2665
sI671
g2663
ssI673
(dp2666
I672
g2665
sI602
g2493
ssI675
(dp2667
I676
(dp2668
sI604
g2495
ssI676
(dp2669
I675
g2668
sI605
g2498
sI677
(dp2670
ssI677
(dp2671
I676
g2670
sI678
(dp2672
sI606
g2501
ssI678
(dp2673
I679
(dp2674
sI677
g2672
sI607
g2505
ssI679
(dp2675
I608
g2507
sI680
(dp2676
sI678
g2674
ssI680
(dp2677
I609
g2510
sI681
(dp2678
sI679
g2676
ssI681
(dp2679
I680
g2678
sI610
g2514
sI682
(dp2680
ssI682
(dp2681
I681
g2680
sI611
g2517
sI683
(dp2682
ssI683
(dp2683
I684
(dp2684
sI682
g2682
sI612
g2519
ssI684
(dp2685
I683
g2684
sI613
g2522
sI685
(dp2686
ssI685
(dp2687
I684
g2686
sI686
(dp2688
sI614
g2525
ssI686
(dp2689
I687
(dp2690
sI685
g2688
sI615
g2529
ssI687
(dp2691
I616
g2531
sI688
(dp2692
sI686
g2690
ssI688
(dp2693
I617
g2534
sI689
(dp2694
sI687
g2692
ssI689
(dp2695
I688
g2694
sI618
g2538
sI690
(dp2696
ssI690
(dp2697
I689
g2696
sI619
g2541
sI691
(dp2698
ssI691
(dp2699
I692
(dp2700
sI690
g2698
sI620
g2543
ssI692
(dp2701
I691
g2700
sI621
g2546
sI693
(dp2702
ssI693
(dp2703
I692
g2702
sI694
(dp2704
sI622
g2549
ssI694
(dp2705
I695
(dp2706
sI693
g2704
sI623
g2553
ssI695
(dp2707
I624
g2555
sI696
(dp2708
sI694
g2706
ssI696
(dp2709
I625
g2558
sI697
(dp2710
sI695
g2708
ssI697
(dp2711
I696
g2710
sI626
g2562
sI698
(dp2712
ssI698
(dp2713
I697
g2712
sI627
g2565
sI699
(dp2714
ssI699
(dp2715
I700
(dp2716
sI698
g2714
sI628
g2567
ssI700
(dp2717
I699
g2716
sI629
g2570
sI701
(dp2718
ssI701
(dp2719
I700
g2718
sI702
(dp2720
sI630
g2573
ssI702
(dp2721
I703
(dp2722
sI701
g2720
sI631
g2577
ssI703
(dp2723
I632
g2579
sI704
(dp2724
sI702
g2722
ssI704
(dp2725
I633
g2582
sI705
(dp2726
sI703
g2724
ssI705
(dp2727
I704
g2726
sI634
g2586
sI706
(dp2728
ssI706
(dp2729
I705
g2728
sI635
g2589
sI707
(dp2730
ssI707
(dp2731
I708
(dp2732
sI706
g2730
sI636
g2591
ssI708
(dp2733
I707
g2732
sI637
g2594
sI709
(dp2734
ssI709
(dp2735
I708
g2734
sI638
g2597
sssS'adjlist_outer_dict_factory'
p2736
g7
sb.