ccopy_reg
_reconstructor
p0
(cnetworkx.classes.graph
Graph
p1
c__builtin__
object
p2
Ntp3
Rp4
(dp5
S'adjlist_inner_dict_factory'
p6
c__builtin__
dict
p7
sS'node_dict_factory'
p8
g7
sS'edge_attr_dict_factory'
p9
g7
sS'_node'
p10
(dp11
I0
(dp12
sI1
(dp13
sI2
(dp14
sI3
(dp15
sI4
(dp16
sI5
(dp17
sI6
(dp18
sI7
(dp19
sI8
(dp20
sI9
(dp21
sI10
(dp22
sI11
(dp23
sI12
(dp24
sI13
(dp25
sI14
(dp26
sI16
(dp27
sI17
(dp28
sI18
(dp29
sI19
(dp30
sI20
(dp31
sI21
(dp32
sI22
(dp33
sI23
(dp34
sI24
(dp35
sI25
(dp36
sI26
(dp37
sI27
(dp38
sI28
(dp39
sI29
(dp40
sI30
(dp41
sI31
(dp42
sI32
(dp43
sI33
(dp44
sI34
(dp45
sI35
(dp46
sI36
(dp47
sI37
(dp48
sI38
(dp49
sI39
(dp50
sI40
(dp51
sI41
(dp52
sI42
(dp53
sI43
(dp54
sI44
(dp55
sI45
(dp56
sI47
(dp57
sI48
(dp58
sI49
(dp59
sI50
(dp60
sI51
(dp61
sI52
(dp62
sI53
(dp63
sI54
(dp64
sI55
(dp65
sI56
(dp66
sI57
(dp67
sI58
(dp68
sI59
(dp69
sI60
(dp70
sI61
(dp71
sI62
(dp72
sI63
(dp73
sI64
(dp74
sI65
(dp75
sI66
(dp76
sI67
(dp77
sI68
(dp78
sI69
(dp79
sI70
(dp80
sI71
(dp81
sI72
(dp82
sI73
(dp83
sI74
(dp84
sI75
(dp85
sI76
(dp86
sI78
(dp87
sI79
(dp88
sI80
(dp89
sI81
(dp90
sI82
(dp91
sI83
(dp92
sI84
(dp93
sI85
(dp94
sI86
(dp95
sI87
(dp96
sI88
(dp97
sI89
(dp98
sI90
(dp99
sI91
(dp100
sI92
(dp101
sI93
(dp102
sI94
(dp103
sI95
(dp104
sI96
(dp105
sI97
(dp106
sI98
(dp107
sI99
(dp108
sI100
(dp109
sI101
(dp110
sI102
(dp111
sI103
(dp112
sI104
(dp113
sI105
(dp114
sI106
(dp115
sI107
(dp116
sI109
(dp117
sI110
(dp118
sI111
(dp119
sI112
(dp120
sI113
(dp121
sI114
(dp122
sI115
(dp123
sI116
(dp124
sI117
(dp125
sI118
(dp126
sI119
(dp127
sI120
(dp128
sI121
(dp129
sI122
(dp130
sI123
(dp131
sI124
(dp132
sI125
(dp133
sI126
(dp134
sI127
(dp135
sI128
(dp136
sI129
(dp137
sI130
(dp138
sI131
(dp139
sI132
(dp140
sI133
(dp141
sI134
(dp142
sI135
(dp143
sI136
(dp144
sI137
(dp145
sI138
(dp146
sI139
(dp147
sI140
(dp148
sI141
(dp149
sI142
(dp150
sI143
(dp151
sI144
(dp152
sI145
(dp153
sI146
(dp154
sI147
(dp155
sI148
(dp156
sI149
(dp157
sI150
(dp158
sI151
(dp159
sI152
(dp160
sI153
(dp161
sI154
(dp162
sI155
(dp163
sI156
(dp164
sI157
(dp165
sI158
(dp166
sI159
(dp167
sI160
(dp168
sI161
(dp169
sI162
(dp170
sI163
(dp171
sI164
(dp172
sI165
(dp173
sI166
(dp174
sI167
(dp175
sI168
(dp176
sI169
(dp177
sI170
(dp178
sI171
(dp179
sI172
(dp180
sI173
(dp181
sI174
(dp182
sI175
(dp183
sI176
(dp184
sI177
(dp185
sI178
(dp186
sI179
(dp187
sI180
(dp188
sI181
(dp189
sI182
(dp190
sI183
(dp191
sI184
(dp192
sI185
(dp193
sI186
(dp194
sI187
(dp195
sI188
(dp196
sI189
(dp197
sI190
(dp198
sI191
(dp199
sI192
(dp200
sI193
(dp201
sI194
(dp202
sI195
(dp203
sI196
(dp204
sI197
(dp205
sI198
(dp206
sI199
(dp207
sI200
(dp208
sI202
(dp209
sI203
(dp210
sI204
(dp211
sI205
(dp212
sI206
(dp213
sI207
(dp214
sI208
(dp215
sI209
(dp216
sI210
(dp217
sI211
(dp218
sI212
(dp219
sI213
(dp220
sI214
(dp221
sI215
(dp222
sI216
(dp223
sI217
(dp224
sI218
(dp225
sI219
(dp226
sI220
(dp227
sI221
(dp228
sI222
(dp229
sI223
(dp230
sI224
(dp231
sI225
(dp232
sI226
(dp233
sI227
(dp234
sI228
(dp235
sI229
(dp236
sI230
(dp237
sI231
(dp238
sI233
(dp239
sI234
(dp240
sI235
(dp241
sI236
(dp242
sI237
(dp243
sI238
(dp244
sI239
(dp245
sI240
(dp246
sI241
(dp247
sI242
(dp248
sI243
(dp249
sI244
(dp250
sI245
(dp251
sI246
(dp252
sI247
(dp253
sI248
(dp254
sI249
(dp255
sI250
(dp256
sI251
(dp257
sI252
(dp258
sI253
(dp259
sI254
(dp260
sI255
(dp261
sI256
(dp262
sI257
(dp263
sI258
(dp264
sI259
(dp265
sI260
(dp266
sI261
(dp267
sI262
(dp268
sI264
(dp269
sI265
(dp270
sI266
(dp271
sI267
(dp272
sI268
(dp273
sI269
(dp274
sI270
(dp275
sI271
(dp276
sI272
(dp277
sI273
(dp278
sI274
(dp279
sI275
(dp280
sI276
(dp281
sI277
(dp282
sI278
(dp283
sI279
(dp284
sI280
(dp285
sI281
(dp286
sI282
(dp287
sI283
(dp288
sI284
(dp289
sI285
(dp290
sI286
(dp291
sI287
(dp292
sI288
(dp293
sI289
(dp294
sI290
(dp295
sI291
(dp296
sI292
(dp297
sI293
(dp298
sI295
(dp299
sI296
(dp300
sI297
(dp301
sI298
(dp302
sI299
(dp303
sI300
(dp304
sI301
(dp305
sI302
(dp306
sI303
(dp307
sI304
(dp308
sI305
(dp309
sI306
(dp310
sI307
(dp311
sI308
(dp312
sI309
(dp313
ssS'graph'
p314
(dp315
sS'root_graph'
p316
g4
sS'_adj'
p317
(dp318
I0
(dp319
I1
(dp320
sI31
(dp321
ssI1
(dp322
I0
g320
sI32
(dp323
sI2
(dp324
ssI2
(dp325
I1
g324
sI3
(dp326
sI33
(dp327
ssI3
(dp328
I2
g326
sI4
(dp329
sI34
(dp330
ssI4
(dp331
I35
(dp332
sI3
g329
sI5
(dp333
ssI5
(dp334
I36
(dp335
sI4
g333
sI6
(dp336
ssI6
(dp337
I7
(dp338
sI5
g336
sI37
(dp339
ssI7
(dp340
I8
(dp341
sI38
(dp342
sI6
g338
ssI8
(dp343
I9
(dp344
sI39
(dp345
sI7
g341
ssI9
(dp346
I8
g344
sI40
(dp347
sI10
(dp348
ssI10
(dp349
I9
g348
sI11
(dp350
sI41
(dp351
ssI11
(dp352
I10
g350
sI12
(dp353
sI42
(dp354
ssI12
(dp355
I43
(dp356
sI11
g353
sI13
(dp357
ssI13
(dp358
I44
(dp359
sI12
g357
sI14
(dp360
ssI14
(dp361
I13
g360
sI45
(dp362
ssI16
(dp363
I17
(dp364
sI47
(dp365
ssI17
(dp366
I16
g364
sI48
(dp367
sI18
(dp368
ssI18
(dp369
I17
g368
sI19
(dp370
sI49
(dp371
ssI19
(dp372
I18
g370
sI20
(dp373
sI50
(dp374
ssI20
(dp375
I51
(dp376
sI19
g373
sI21
(dp377
ssI21
(dp378
I52
(dp379
sI20
g377
sI22
(dp380
ssI22
(dp381
I23
(dp382
sI21
g380
sI53
(dp383
ssI23
(dp384
I24
(dp385
sI54
(dp386
sI22
g382
ssI24
(dp387
I25
(dp388
sI55
(dp389
sI23
g385
ssI25
(dp390
I24
g388
sI56
(dp391
sI26
(dp392
ssI26
(dp393
I25
g392
sI27
(dp394
sI57
(dp395
ssI27
(dp396
I26
g394
sI28
(dp397
sI58
(dp398
ssI28
(dp399
I59
(dp400
sI27
g397
sI29
(dp401
ssI29
(dp402
I60
(dp403
sI28
g401
sI30
(dp404
ssI30
(dp405
I29
g404
sI61
(dp406
ssI31
(dp407
I0
g321
sI32
(dp408
sI62
(dp409
ssI32
(dp410
I1
g323
sI63
(dp411
sI33
(dp412
sI31
g408
ssI33
(dp413
I32
g412
sI64
(dp414
sI2
g327
sI34
(dp415
ssI34
(dp416
I33
g415
sI3
g330
sI35
(dp417
sI65
(dp418
ssI35
(dp419
I36
(dp420
sI34
g417
sI4
g332
sI66
(dp421
ssI36
(dp422
I67
(dp423
sI35
g420
sI5
g335
sI37
(dp424
ssI37
(dp425
I68
(dp426
sI36
g424
sI38
(dp427
sI6
g339
ssI38
(dp428
I39
(dp429
sI37
g427
sI69
(dp430
sI7
g342
ssI39
(dp431
I8
g345
sI40
(dp432
sI70
(dp433
sI38
g429
ssI40
(dp434
I9
g347
sI71
(dp435
sI41
(dp436
sI39
g432
ssI41
(dp437
I40
g436
sI72
(dp438
sI10
g351
sI42
(dp439
ssI42
(dp440
I41
g439
sI11
g354
sI43
(dp441
sI73
(dp442
ssI43
(dp443
I44
(dp444
sI42
g441
sI12
g356
sI74
(dp445
ssI44
(dp446
I75
(dp447
sI43
g444
sI13
g359
sI45
(dp448
ssI45
(dp449
I76
(dp450
sI44
g448
sI14
g362
ssI47
(dp451
I16
g365
sI48
(dp452
sI78
(dp453
ssI48
(dp454
I17
g367
sI79
(dp455
sI49
(dp456
sI47
g452
ssI49
(dp457
I48
g456
sI80
(dp458
sI18
g371
sI50
(dp459
ssI50
(dp460
I49
g459
sI19
g374
sI51
(dp461
sI81
(dp462
ssI51
(dp463
I52
(dp464
sI50
g461
sI20
g376
sI82
(dp465
ssI52
(dp466
I83
(dp467
sI51
g464
sI21
g379
sI53
(dp468
ssI53
(dp469
I84
(dp470
sI52
g468
sI54
(dp471
sI22
g383
ssI54
(dp472
I55
(dp473
sI53
g471
sI85
(dp474
sI23
g386
ssI55
(dp475
I24
g389
sI56
(dp476
sI86
(dp477
sI54
g473
ssI56
(dp478
I25
g391
sI87
(dp479
sI57
(dp480
sI55
g476
ssI57
(dp481
I56
g480
sI88
(dp482
sI26
g395
sI58
(dp483
ssI58
(dp484
I57
g483
sI27
g398
sI59
(dp485
sI89
(dp486
ssI59
(dp487
I60
(dp488
sI58
g485
sI28
g400
sI90
(dp489
ssI60
(dp490
I91
(dp491
sI59
g488
sI29
g403
sI61
(dp492
ssI61
(dp493
I92
(dp494
sI60
g492
sI30
g406
ssI62
(dp495
I63
(dp496
sI93
(dp497
sI31
g409
ssI63
(dp498
I32
g411
sI64
(dp499
sI94
(dp500
sI62
g496
ssI64
(dp501
I33
g414
sI95
(dp502
sI65
(dp503
sI63
g499
ssI65
(dp504
I64
g503
sI96
(dp505
sI34
g418
sI66
(dp506
ssI66
(dp507
I65
g506
sI67
(dp508
sI35
g421
sI97
(dp509
ssI67
(dp510
I68
(dp511
sI66
g508
sI36
g423
sI98
(dp512
ssI68
(dp513
I99
(dp514
sI67
g511
sI37
g426
sI69
(dp515
ssI69
(dp516
I100
(dp517
sI68
g515
sI70
(dp518
sI38
g430
ssI70
(dp519
I71
(dp520
sI101
(dp521
sI69
g518
sI39
g433
ssI71
(dp522
I40
g435
sI72
(dp523
sI102
(dp524
sI70
g520
ssI72
(dp525
I41
g438
sI103
(dp526
sI73
(dp527
sI71
g523
ssI73
(dp528
I72
g527
sI104
(dp529
sI42
g442
sI74
(dp530
ssI74
(dp531
I73
g530
sI75
(dp532
sI43
g445
sI105
(dp533
ssI75
(dp534
I76
(dp535
sI74
g532
sI44
g447
sI106
(dp536
ssI76
(dp537
I107
(dp538
sI75
g535
sI45
g450
ssI78
(dp539
I79
(dp540
sI109
(dp541
sI47
g453
ssI79
(dp542
I48
g455
sI80
(dp543
sI110
(dp544
sI78
g540
ssI80
(dp545
I49
g458
sI111
(dp546
sI81
(dp547
sI79
g543
ssI81
(dp548
I80
g547
sI112
(dp549
sI50
g462
sI82
(dp550
ssI82
(dp551
I81
g550
sI83
(dp552
sI51
g465
sI113
(dp553
ssI83
(dp554
I84
(dp555
sI82
g552
sI52
g467
sI114
(dp556
ssI84
(dp557
I115
(dp558
sI83
g555
sI53
g470
sI85
(dp559
ssI85
(dp560
I116
(dp561
sI84
g559
sI86
(dp562
sI54
g474
ssI86
(dp563
I87
(dp564
sI117
(dp565
sI85
g562
sI55
g477
ssI87
(dp566
I56
g479
sI88
(dp567
sI118
(dp568
sI86
g564
ssI88
(dp569
I57
g482
sI119
(dp570
sI89
(dp571
sI87
g567
ssI89
(dp572
I88
g571
sI120
(dp573
sI58
g486
sI90
(dp574
ssI90
(dp575
I89
g574
sI91
(dp576
sI59
g489
sI121
(dp577
ssI91
(dp578
I92
(dp579
sI90
g576
sI60
g491
sI122
(dp580
ssI92
(dp581
I123
(dp582
sI91
g579
sI61
g494
ssI93
(dp583
I124
(dp584
sI94
(dp585
sI62
g497
ssI94
(dp586
I95
(dp587
sI125
(dp588
sI93
g585
sI63
g500
ssI95
(dp589
I64
g502
sI96
(dp590
sI126
(dp591
sI94
g587
ssI96
(dp592
I65
g505
sI127
(dp593
sI97
(dp594
sI95
g590
ssI97
(dp595
I96
g594
sI128
(dp596
sI66
g509
sI98
(dp597
ssI98
(dp598
I99
(dp599
sI97
g597
sI67
g512
sI129
(dp600
ssI99
(dp601
I100
(dp602
sI98
g599
sI68
g514
sI130
(dp603
ssI100
(dp604
I99
g602
sI131
(dp605
sI69
g517
sI101
(dp606
ssI101
(dp607
I132
(dp608
sI100
g606
sI102
(dp609
sI70
g521
ssI102
(dp610
I133
(dp611
sI103
(dp612
sI101
g609
sI71
g524
ssI103
(dp613
I72
g526
sI104
(dp614
sI134
(dp615
sI102
g612
ssI104
(dp616
I73
g529
sI135
(dp617
sI105
(dp618
sI103
g614
ssI105
(dp619
I104
g618
sI136
(dp620
sI74
g533
sI106
(dp621
ssI106
(dp622
I107
(dp623
sI105
g621
sI75
g536
sI137
(dp624
ssI107
(dp625
I106
g623
sI76
g538
sI138
(dp626
ssI109
(dp627
I140
(dp628
sI110
(dp629
sI78
g541
ssI110
(dp630
I141
(dp631
sI111
(dp632
sI109
g629
sI79
g544
ssI111
(dp633
I80
g546
sI112
(dp634
sI142
(dp635
sI110
g632
ssI112
(dp636
I81
g549
sI143
(dp637
sI113
(dp638
sI111
g634
ssI113
(dp639
I112
g638
sI144
(dp640
sI82
g553
sI114
(dp641
ssI114
(dp642
I115
(dp643
sI113
g641
sI83
g556
sI145
(dp644
ssI115
(dp645
I116
(dp646
sI114
g643
sI84
g558
sI146
(dp647
ssI116
(dp648
I115
g646
sI147
(dp649
sI85
g561
sI117
(dp650
ssI117
(dp651
I148
(dp652
sI116
g650
sI118
(dp653
sI86
g565
ssI118
(dp654
I149
(dp655
sI119
(dp656
sI117
g653
sI87
g568
ssI119
(dp657
I88
g570
sI120
(dp658
sI150
(dp659
sI118
g656
ssI120
(dp660
I89
g573
sI151
(dp661
sI121
(dp662
sI119
g658
ssI121
(dp663
I120
g662
sI152
(dp664
sI90
g577
sI122
(dp665
ssI122
(dp666
I123
(dp667
sI121
g665
sI91
g580
sI153
(dp668
ssI123
(dp669
I122
g667
sI92
g582
sI154
(dp670
ssI124
(dp671
I155
(dp672
sI93
g584
sI125
(dp673
ssI125
(dp674
I156
(dp675
sI124
g673
sI126
(dp676
sI94
g588
ssI126
(dp677
I157
(dp678
sI127
(dp679
sI125
g676
sI95
g591
ssI127
(dp680
I96
g593
sI128
(dp681
sI158
(dp682
sI126
g679
ssI128
(dp683
I129
(dp684
sI97
g596
sI159
(dp685
sI127
g681
ssI129
(dp686
I128
g684
sI160
(dp687
sI98
g600
sI130
(dp688
ssI130
(dp689
I129
g688
sI99
g603
sI131
(dp690
sI161
(dp691
ssI131
(dp692
I132
(dp693
sI130
g690
sI100
g605
sI162
(dp694
ssI132
(dp695
I163
(dp696
sI131
g693
sI101
g608
sI133
(dp697
ssI133
(dp698
I164
(dp699
sI132
g697
sI134
(dp700
sI102
g611
ssI134
(dp701
I165
(dp702
sI135
(dp703
sI133
g700
sI103
g615
ssI135
(dp704
I104
g617
sI136
(dp705
sI166
(dp706
sI134
g703
ssI136
(dp707
I137
(dp708
sI105
g620
sI167
(dp709
sI135
g705
ssI137
(dp710
I136
g708
sI168
(dp711
sI106
g624
sI138
(dp712
ssI138
(dp713
I137
g712
sI107
g626
sI139
(dp714
sI169
(dp715
ssI139
(dp716
I138
g714
sI140
(dp717
sI170
(dp718
ssI140
(dp719
I171
(dp720
sI139
g717
sI109
g628
sI141
(dp721
ssI141
(dp722
I172
(dp723
sI140
g721
sI142
(dp724
sI110
g631
ssI142
(dp725
I173
(dp726
sI143
(dp727
sI141
g724
sI111
g635
ssI143
(dp728
I112
g637
sI144
(dp729
sI174
(dp730
sI142
g727
ssI144
(dp731
I145
(dp732
sI113
g640
sI175
(dp733
sI143
g729
ssI145
(dp734
I144
g732
sI176
(dp735
sI114
g644
sI146
(dp736
ssI146
(dp737
I145
g736
sI115
g647
sI147
(dp738
sI177
(dp739
ssI147
(dp740
I148
(dp741
sI146
g738
sI116
g649
sI178
(dp742
ssI148
(dp743
I179
(dp744
sI147
g741
sI117
g652
sI149
(dp745
ssI149
(dp746
I180
(dp747
sI148
g745
sI150
(dp748
sI118
g655
ssI150
(dp749
I181
(dp750
sI151
(dp751
sI149
g748
sI119
g659
ssI151
(dp752
I120
g661
sI152
(dp753
sI182
(dp754
sI150
g751
ssI152
(dp755
I153
(dp756
sI121
g664
sI183
(dp757
sI151
g753
ssI153
(dp758
I152
g756
sI184
(dp759
sI122
g668
sI154
(dp760
ssI154
(dp761
I153
g760
sI123
g670
sI185
(dp762
ssI155
(dp763
I156
(dp764
sI186
(dp765
sI124
g672
ssI156
(dp766
I187
(dp767
sI155
g764
sI125
g675
sI157
(dp768
ssI157
(dp769
I188
(dp770
sI156
g768
sI158
(dp771
sI126
g678
ssI158
(dp772
I189
(dp773
sI159
(dp774
sI157
g771
sI127
g682
ssI159
(dp775
I128
g685
sI160
(dp776
sI190
(dp777
sI158
g774
ssI160
(dp778
I129
g687
sI191
(dp779
sI161
(dp780
sI159
g776
ssI161
(dp781
I160
g780
sI192
(dp782
sI130
g691
sI162
(dp783
ssI162
(dp784
I161
g783
sI131
g694
sI163
(dp785
sI193
(dp786
ssI163
(dp787
I164
(dp788
sI162
g785
sI132
g696
sI194
(dp789
ssI164
(dp790
I163
g788
sI133
g699
sI195
(dp791
sI165
(dp792
ssI165
(dp793
I196
(dp794
sI164
g792
sI166
(dp795
sI134
g702
ssI166
(dp796
I197
(dp797
sI167
(dp798
sI165
g795
sI135
g706
ssI167
(dp799
I136
g709
sI168
(dp800
sI198
(dp801
sI166
g798
ssI168
(dp802
I137
g711
sI199
(dp803
sI169
(dp804
sI167
g800
ssI169
(dp805
I168
g804
sI200
(dp806
sI138
g715
sI170
(dp807
ssI170
(dp808
I169
g807
sI139
g718
sI171
(dp809
ssI171
(dp810
I172
(dp811
sI170
g809
sI140
g720
sI202
(dp812
ssI172
(dp813
I171
g811
sI141
g723
sI203
(dp814
sI173
(dp815
ssI173
(dp816
I204
(dp817
sI172
g815
sI174
(dp818
sI142
g726
ssI174
(dp819
I205
(dp820
sI175
(dp821
sI173
g818
sI143
g730
ssI175
(dp822
I144
g733
sI176
(dp823
sI206
(dp824
sI174
g821
ssI176
(dp825
I145
g735
sI207
(dp826
sI177
(dp827
sI175
g823
ssI177
(dp828
I176
g827
sI208
(dp829
sI146
g739
sI178
(dp830
ssI178
(dp831
I177
g830
sI147
g742
sI179
(dp832
sI209
(dp833
ssI179
(dp834
I180
(dp835
sI178
g832
sI148
g744
sI210
(dp836
ssI180
(dp837
I179
g835
sI149
g747
sI211
(dp838
sI181
(dp839
ssI181
(dp840
I212
(dp841
sI180
g839
sI182
(dp842
sI150
g750
ssI182
(dp843
I213
(dp844
sI183
(dp845
sI181
g842
sI151
g754
ssI183
(dp846
I152
g757
sI184
(dp847
sI214
(dp848
sI182
g845
ssI184
(dp849
I153
g759
sI215
(dp850
sI185
(dp851
sI183
g847
ssI185
(dp852
I184
g851
sI216
(dp853
sI154
g762
ssI186
(dp854
I217
(dp855
sI155
g765
sI187
(dp856
ssI187
(dp857
I188
(dp858
sI186
g856
sI156
g767
sI218
(dp859
ssI188
(dp860
I187
g858
sI157
g770
sI219
(dp861
sI189
(dp862
ssI189
(dp863
I220
(dp864
sI188
g862
sI190
(dp865
sI158
g773
ssI190
(dp866
I221
(dp867
sI191
(dp868
sI189
g865
sI159
g777
ssI191
(dp869
I160
g779
sI192
(dp870
sI222
(dp871
sI190
g868
ssI192
(dp872
I161
g782
sI193
(dp873
sI223
(dp874
sI191
g870
ssI193
(dp875
I192
g873
sI224
(dp876
sI162
g786
sI194
(dp877
ssI194
(dp878
I193
g877
sI163
g789
sI195
(dp879
sI225
(dp880
ssI195
(dp881
I196
(dp882
sI194
g879
sI164
g791
sI226
(dp883
ssI196
(dp884
I197
(dp885
sI195
g882
sI165
g794
sI227
(dp886
ssI197
(dp887
I228
(dp888
sI196
g885
sI198
(dp889
sI166
g797
ssI198
(dp890
I229
(dp891
sI197
g889
sI199
(dp892
sI167
g801
ssI199
(dp893
I168
g803
sI200
(dp894
sI230
(dp895
sI198
g892
ssI200
(dp896
I169
g806
sI231
(dp897
sI199
g894
ssI202
(dp898
I233
(dp899
sI171
g812
sI203
(dp900
ssI203
(dp901
I204
(dp902
sI202
g900
sI172
g814
sI234
(dp903
ssI204
(dp904
I205
(dp905
sI203
g902
sI173
g817
sI235
(dp906
ssI205
(dp907
I236
(dp908
sI204
g905
sI206
(dp909
sI174
g820
ssI206
(dp910
I237
(dp911
sI205
g909
sI207
(dp912
sI175
g824
ssI207
(dp913
I176
g826
sI208
(dp914
sI238
(dp915
sI206
g912
ssI208
(dp916
I177
g829
sI209
(dp917
sI239
(dp918
sI207
g914
ssI209
(dp919
I208
g917
sI240
(dp920
sI178
g833
sI210
(dp921
ssI210
(dp922
I209
g921
sI179
g836
sI211
(dp923
sI241
(dp924
ssI211
(dp925
I212
(dp926
sI210
g923
sI180
g838
sI242
(dp927
ssI212
(dp928
I213
(dp929
sI211
g926
sI181
g841
sI243
(dp930
ssI213
(dp931
I244
(dp932
sI212
g929
sI214
(dp933
sI182
g844
ssI214
(dp934
I245
(dp935
sI213
g933
sI215
(dp936
sI183
g848
ssI215
(dp937
I184
g850
sI216
(dp938
sI246
(dp939
sI214
g936
ssI216
(dp940
I185
g853
sI247
(dp941
sI215
g938
ssI217
(dp942
I248
(dp943
sI186
g855
sI218
(dp944
ssI218
(dp945
I217
g944
sI187
g859
sI219
(dp946
sI249
(dp947
ssI219
(dp948
I220
(dp949
sI218
g946
sI188
g861
sI250
(dp950
ssI220
(dp951
I221
(dp952
sI219
g949
sI189
g864
sI251
(dp953
ssI221
(dp954
I252
(dp955
sI220
g952
sI222
(dp956
sI190
g867
ssI222
(dp957
I253
(dp958
sI221
g956
sI223
(dp959
sI191
g871
ssI223
(dp960
I192
g874
sI224
(dp961
sI254
(dp962
sI222
g959
ssI224
(dp963
I225
(dp964
sI193
g876
sI255
(dp965
sI223
g961
ssI225
(dp966
I224
g964
sI256
(dp967
sI194
g880
sI226
(dp968
ssI226
(dp969
I225
g968
sI195
g883
sI227
(dp970
sI257
(dp971
ssI227
(dp972
I228
(dp973
sI226
g970
sI196
g886
sI258
(dp974
ssI228
(dp975
I259
(dp976
sI227
g973
sI197
g888
sI229
(dp977
ssI229
(dp978
I260
(dp979
sI228
g977
sI230
(dp980
sI198
g891
ssI230
(dp981
I231
(dp982
sI261
(dp983
sI229
g980
sI199
g895
ssI231
(dp984
I200
g897
sI262
(dp985
sI230
g982
ssI233
(dp986
I264
(dp987
sI202
g899
sI234
(dp988
ssI234
(dp989
I233
g988
sI203
g903
sI235
(dp990
sI265
(dp991
ssI235
(dp992
I236
(dp993
sI234
g990
sI204
g906
sI266
(dp994
ssI236
(dp995
I267
(dp996
sI235
g993
sI205
g908
sI237
(dp997
ssI237
(dp998
I268
(dp999
sI236
g997
sI238
(dp1000
sI206
g911
ssI238
(dp1001
I239
(dp1002
sI269
(dp1003
sI237
g1000
sI207
g915
ssI239
(dp1004
I208
g918
sI240
(dp1005
sI270
(dp1006
sI238
g1002
ssI240
(dp1007
I241
(dp1008
sI209
g920
sI271
(dp1009
sI239
g1005
ssI241
(dp1010
I240
g1008
sI272
(dp1011
sI210
g924
sI242
(dp1012
ssI242
(dp1013
I241
g1012
sI211
g927
sI243
(dp1014
sI273
(dp1015
ssI243
(dp1016
I244
(dp1017
sI242
g1014
sI212
g930
sI274
(dp1018
ssI244
(dp1019
I275
(dp1020
sI243
g1017
sI213
g932
sI245
(dp1021
ssI245
(dp1022
I276
(dp1023
sI244
g1021
sI246
(dp1024
sI214
g935
ssI246
(dp1025
I247
(dp1026
sI277
(dp1027
sI245
g1024
sI215
g939
ssI247
(dp1028
I216
g941
sI278
(dp1029
sI246
g1026
ssI248
(dp1030
I217
g943
sI249
(dp1031
sI279
(dp1032
ssI249
(dp1033
I248
g1031
sI280
(dp1034
sI218
g947
sI250
(dp1035
ssI250
(dp1036
I249
g1035
sI219
g950
sI251
(dp1037
sI281
(dp1038
ssI251
(dp1039
I252
(dp1040
sI250
g1037
sI220
g953
sI282
(dp1041
ssI252
(dp1042
I283
(dp1043
sI251
g1040
sI221
g955
sI253
(dp1044
ssI253
(dp1045
I284
(dp1046
sI252
g1044
sI254
(dp1047
sI222
g958
ssI254
(dp1048
I255
(dp1049
sI285
(dp1050
sI253
g1047
sI223
g962
ssI255
(dp1051
I224
g965
sI256
(dp1052
sI286
(dp1053
sI254
g1049
ssI256
(dp1054
I225
g967
sI287
(dp1055
sI257
(dp1056
sI255
g1052
ssI257
(dp1057
I256
g1056
sI288
(dp1058
sI226
g971
sI258
(dp1059
ssI258
(dp1060
I259
(dp1061
sI257
g1059
sI227
g974
sI289
(dp1062
ssI259
(dp1063
I260
(dp1064
sI258
g1061
sI228
g976
sI290
(dp1065
ssI260
(dp1066
I291
(dp1067
sI259
g1064
sI229
g979
sI261
(dp1068
ssI261
(dp1069
I292
(dp1070
sI260
g1068
sI262
(dp1071
sI230
g983
ssI262
(dp1072
I293
(dp1073
sI261
g1071
sI231
g985
ssI264
(dp1074
I233
g987
sI265
(dp1075
sI295
(dp1076
ssI265
(dp1077
I264
g1075
sI296
(dp1078
sI234
g991
sI266
(dp1079
ssI266
(dp1080
I267
(dp1081
sI265
g1079
sI235
g994
sI297
(dp1082
ssI267
(dp1083
I268
(dp1084
sI266
g1081
sI236
g996
sI298
(dp1085
ssI268
(dp1086
I299
(dp1087
sI267
g1084
sI237
g999
sI269
(dp1088
ssI269
(dp1089
I300
(dp1090
sI268
g1088
sI270
(dp1091
sI238
g1003
ssI270
(dp1092
I301
(dp1093
sI271
(dp1094
sI269
g1091
sI239
g1006
ssI271
(dp1095
I240
g1009
sI272
(dp1096
sI302
(dp1097
sI270
g1094
ssI272
(dp1098
I241
g1011
sI303
(dp1099
sI273
(dp1100
sI271
g1096
ssI273
(dp1101
I272
g1100
sI304
(dp1102
sI242
g1015
sI274
(dp1103
ssI274
(dp1104
I275
(dp1105
sI273
g1103
sI243
g1018
sI305
(dp1106
ssI275
(dp1107
I276
(dp1108
sI274
g1105
sI244
g1020
sI306
(dp1109
ssI276
(dp1110
I307
(dp1111
sI275
g1108
sI245
g1023
sI277
(dp1112
ssI277
(dp1113
I308
(dp1114
sI276
g1112
sI278
(dp1115
sI246
g1027
ssI278
(dp1116
I309
(dp1117
sI277
g1115
sI247
g1029
ssI279
(dp1118
I248
g1032
sI280
(dp1119
ssI280
(dp1120
I249
g1034
sI281
(dp1121
sI279
g1119
ssI281
(dp1122
I280
g1121
sI250
g1038
sI282
(dp1123
ssI282
(dp1124
I283
(dp1125
sI281
g1123
sI251
g1041
ssI283
(dp1126
I284
(dp1127
sI282
g1125
sI252
g1043
ssI284
(dp1128
I283
g1127
sI253
g1046
sI285
(dp1129
ssI285
(dp1130
I284
g1129
sI286
(dp1131
sI254
g1050
ssI286
(dp1132
I287
(dp1133
sI285
g1131
sI255
g1053
ssI287
(dp1134
I256
g1055
sI288
(dp1135
sI286
g1133
ssI288
(dp1136
I257
g1058
sI289
(dp1137
sI287
g1135
ssI289
(dp1138
I288
g1137
sI258
g1062
sI290
(dp1139
ssI290
(dp1140
I289
g1139
sI259
g1065
sI291
(dp1141
ssI291
(dp1142
I292
(dp1143
sI290
g1141
sI260
g1067
ssI292
(dp1144
I291
g1143
sI261
g1070
sI293
(dp1145
ssI293
(dp1146
I292
g1145
sI262
g1073
ssI295
(dp1147
I264
g1076
sI296
(dp1148
ssI296
(dp1149
I265
g1078
sI297
(dp1150
sI295
g1148
ssI297
(dp1151
I296
g1150
sI266
g1082
sI298
(dp1152
ssI298
(dp1153
I297
g1152
sI267
g1085
sI299
(dp1154
ssI299
(dp1155
I300
(dp1156
sI298
g1154
sI268
g1087
ssI300
(dp1157
I299
g1156
sI269
g1090
sI301
(dp1158
ssI301
(dp1159
I300
g1158
sI302
(dp1160
sI270
g1093
ssI302
(dp1161
I303
(dp1162
sI301
g1160
sI271
g1097
ssI303
(dp1163
I272
g1099
sI304
(dp1164
sI302
g1162
ssI304
(dp1165
I273
g1102
sI305
(dp1166
sI303
g1164
ssI305
(dp1167
I304
g1166
sI274
g1106
sI306
(dp1168
ssI306
(dp1169
I305
g1168
sI275
g1109
sI307
(dp1170
ssI307
(dp1171
I308
(dp1172
sI306
g1170
sI276
g1111
ssI308
(dp1173
I307
g1172
sI277
g1114
sI309
(dp1174
ssI309
(dp1175
I308
g1174
sI278
g1117
sssS'adjlist_outer_dict_factory'
p1176
g7
sb.