(lp0
I106
acnumpy.core.multiarray
scalar
p1
(cnumpy
dtype
p2
(S'i4'
p3
I0
I1
tp4
Rp5
(I3
S'<'
p6
NNNI-1
I-1
I0
tp7
bS'\x00\x01\x00\x00'
p8
tp9
Rp10
aI214
aI235
aI236
aI299
aI193
aI235
aI235
aI93
aI90
ag1
(g5
S'X\x01\x00\x00'
p11
tp12
Rp13
aI214
aI214
aI173
aI256
aI323
aI214
aI193
aI193
ag1
(g5
S'2\x01\x00\x00'
p14
tp15
Rp16
aI192
aI214
ag1
(g5
S'D\x01\x00\x00'
p17
tp18
Rp19
aI214
aI193
aI214
aI235
aI173
aI214
aI344
aI214
aI214
aI318
aI235
aI193
aI172
ag1
(g5
S'V\x01\x00\x00'
p20
tp21
Rp22
aI235
aI342
ag1
(g5
S'_\x00\x00\x00'
p23
tp24
Rp25
aI277
aI172
aI193
aI193
ag1
(g5
S'\x84\x00\x00\x00'
p26
tp27
Rp28
aI323
aI235
aI324
aI72
ag1
(g5
S'\x97\x00\x00\x00'
p29
tp30
Rp31
aI235
aI172
aI277
aI193
aI235
aI110
ag1
(g5
S'\xd6\x00\x00\x00'
p32
tp33
Rp34
aI172
aI323
aI324
ag1
(g5
S'i\x01\x00\x00'
p35
tp36
Rp37
aI93
aI193
aI111
aI193
aI326
aI151
aI193
aI324
aI214
aI235
aI214
ag1
(g5
S']\x00\x00\x00'
p38
tp39
Rp40
aI256
aI192
aI92
ag1
(g5
S'\xc1\x00\x00\x00'
p41
tp42
Rp43
aI150
aI214
aI344
aI182
aI172
ag1
(g5
S'D\x01\x00\x00'
p44
tp45
Rp46
aI193
ag1
(g5
S'/\x00\x00\x00'
p47
tp48
Rp49
ag1
(g5
S'F\x01\x00\x00'
p50
tp51
Rp52
aI193
ag1
(g5
S'E\x01\x00\x00'
p53
tp54
Rp55
aI236
aI235
aI322
aI193
aI193
aI381
aI256
aI235
aI91
aI235
aI214
a.