(lp0
I106
aI193
acnumpy.core.multiarray
scalar
p1
(cnumpy
dtype
p2
(S'i4'
p3
I0
I1
tp4
Rp5
(I3
S'<'
p6
NNNI-1
I-1
I0
tp7
bS'\xc1\x00\x00\x00'
p8
tp9
Rp10
aI235
aI256
aI323
aI193
aI235
aI214
aI93
ag1
(g5
S'p\x00\x00\x00'
p11
tp12
Rp13
aI343
ag1
(g5
S'\xd6\x00\x00\x00'
p14
tp15
Rp16
aI214
aI151
aI256
ag1
(g5
S'D\x01\x00\x00'
p17
tp18
Rp19
aI256
ag1
(g5
S'\xd6\x00\x00\x00'
p20
tp21
Rp22
aI214
ag1
(g5
S'D\x01\x00\x00'
p23
tp24
Rp25
aI172
aI214
ag1
(g5
S'D\x01\x00\x00'
p26
tp27
Rp28
aI214
aI214
aI193
aI235
aI173
aI235
aI322
aI214
aI214
aI318
aI235
aI193
aI172
ag1
(g5
S'A\x01\x00\x00'
p29
tp30
Rp31
aI235
aI214
ag1
(g5
S'r\x00\x00\x00'
p32
tp33
Rp34
aI277
aI193
aI193
aI193
ag1
(g5
S'o\x00\x00\x00'
p35
tp36
Rp37
ag1
(g5
S'C\x01\x00\x00'
p38
tp39
Rp40
aI193
aI324
aI194
aI172
aI235
aI193
aI256
aI193
aI235
aI110
aI214
aI193
aI323
ag1
(g5
S'D\x01\x00\x00'
p41
tp42
Rp43
ag1
(g5
S'\x94\x01\x00\x00'
p44
tp45
Rp46
ag1
(g5
S']\x00\x00\x00'
p47
tp48
Rp49
aI214
aI91
aI193
aI256
aI172
aI193
aI193
aI214
aI72
aI235
ag1
(g5
S']\x00\x00\x00'
p50
tp51
Rp52
aI235
aI193
ag1
(g5
S']\x00\x00\x00'
p53
tp54
Rp55
aI172
aI151
aI193
aI302
aI161
aI193
ag1
(g5
S'E\x01\x00\x00'
p56
tp57
Rp58
aI235
ag1
(g5
S'/\x00\x00\x00'
p59
tp60
Rp61
ag1
(g5
S'C\x01\x00\x00'
p62
tp63
Rp64
aI193
ag1
(g5
S'D\x01\x00\x00'
p65
tp66
Rp67
aI235
aI235
aI235
aI235
aI193
ag1
(g5
S'}\x01\x00\x00'
p68
tp69
Rp70
aI256
aI235
aI91
aI214
aI214
a.