(lp0
I183
aI226
aI185
aI225
acnumpy.core.multiarray
scalar
p1
(cnumpy
dtype
p2
(S'i4'
p3
I0
I1
tp4
Rp5
(I3
S'<'
p6
NNNI-1
I-1
I0
tp7
bS'\xb7\x00\x00\x00'
p8
tp9
Rp10
ag1
(g5
S'\xe2\x00\x00\x00'
p11
tp12
Rp13
ag1
(g5
S'\xe2\x00\x00\x00'
p14
tp15
Rp16
aI185
aI185
aI186
aI185
aI183
ag1
(g5
S'\xe2\x00\x00\x00'
p17
tp18
Rp19
ag1
(g5
S'\xe0\x00\x00\x00'
p20
tp21
Rp22
ag1
(g5
S'\xe2\x00\x00\x00'
p23
tp24
Rp25
aI186
aI185
ag1
(g5
S'\xb8\x00\x00\x00'
p26
tp27
Rp28
aI226
aI185
ag1
(g5
S'\xba\x00\x00\x00'
p29
tp30
Rp31
aI225
aI183
aI227
aI224
aI184
aI185
aI184
aI184
aI184
aI182
aI184
aI186
ag1
(g5
S'\xe1\x00\x00\x00'
p32
tp33
Rp34
ag1
(g5
S'\xb8\x00\x00\x00'
p35
tp36
Rp37
aI186
aI228
aI227
aI183
ag1
(g5
S'\xb7\x00\x00\x00'
p38
tp39
Rp40
aI184
aI227
aI226
aI184
aI183
aI226
aI185
aI185
aI183
aI184
ag1
(g5
S'\xb7\x00\x00\x00'
p41
tp42
Rp43
aI184
aI184
aI226
ag1
(g5
S'\xb9\x00\x00\x00'
p44
tp45
Rp46
ag1
(g5
S'\xb9\x00\x00\x00'
p47
tp48
Rp49
aI185
ag1
(g5
S'\xe0\x00\x00\x00'
p50
tp51
Rp52
aI184
aI226
aI184
aI182
aI183
aI185
ag1
(g5
S'\xe4\x00\x00\x00'
p53
tp54
Rp55
aI184
aI184
ag1
(g5
S'\xb9\x00\x00\x00'
p56
tp57
Rp58
aI185
aI186
ag1
(g5
S'\xb9\x00\x00\x00'
p59
tp60
Rp61
ag1
(g5
S'\xb9\x00\x00\x00'
p62
tp63
Rp64
aI185
aI186
aI224
aI184
aI185
aI183
aI226
aI226
aI185
aI225
aI226
aI183
aI224
aI185
aI226
aI225
aI225
aI226
aI184
ag1
(g5
S'\xb7\x00\x00\x00'
p65
tp66
Rp67
ag1
(g5
S'\xb9\x00\x00\x00'
p68
tp69
Rp70
ag1
(g5
S'\xe0\x00\x00\x00'
p71
tp72
Rp73
ag1
(g5
S'\xe2\x00\x00\x00'
p74
tp75
Rp76
aI183
aI184
ag1
(g5
S'\xe4\x00\x00\x00'
p77
tp78
Rp79
aI184
aI226
a.