(lp0
I296
aI74
acnumpy.core.multiarray
scalar
p1
(cnumpy
dtype
p2
(S'i4'
p3
I0
I1
tp4
Rp5
(I3
S'<'
p6
NNNI-1
I-1
I0
tp7
bS']\x00\x00\x00'
p8
tp9
Rp10
ag1
(g5
S'\xa1\x00\x00\x00'
p11
tp12
Rp13
ag1
(g5
S'\x84\x00\x00\x00'
p14
tp15
Rp16
ag1
(g5
S'\x8c\x00\x00\x00'
p17
tp18
Rp19
ag1
(g5
S'1\x01\x00\x00'
p20
tp21
Rp22
aI235
ag1
(g5
S'\x8d\x00\x00\x00'
p23
tp24
Rp25
aI324
aI303
aI75
ag1
(g5
S'E\x01\x00\x00'
p26
tp27
Rp28
aI286
aI287
ag1
(g5
S'L\x00\x00\x00'
p29
tp30
Rp31
ag1
(g5
S'\t\x01\x00\x00'
p32
tp33
Rp34
aI94
aI287
aI95
ag1
(g5
S'[\x01\x00\x00'
p35
tp36
Rp37
aI193
ag1
(g5
S'"\x01\x00\x00'
p38
tp39
Rp40
ag1
(g5
S'l\x01\x00\x00'
p41
tp42
Rp43
aI256
aI326
aI288
ag1
(g5
S'a\x00\x00\x00'
p44
tp45
Rp46
aI286
aI301
ag1
(g5
S'F\x01\x00\x00'
p47
tp48
Rp49
aI236
ag1
(g5
S'+\x01\x00\x00'
p50
tp51
Rp52
aI277
ag1
(g5
S'\n\x01\x00\x00'
p53
tp54
Rp55
ag1
(g5
S'F\x01\x00\x00'
p56
tp57
Rp58
aI161
aI345
aI111
aI195
ag1
(g5
S'\xeb\x00\x00\x00'
p59
tp60
Rp61
aI279
aI245
aI172
ag1
(g5
S'\xc1\x00\x00\x00'
p62
tp63
Rp64
aI237
aI163
aI92
ag1
(g5
S'8\x00\x00\x00'
p65
tp66
Rp67
aI75
aI193
ag1
(g5
S'\xb6\x00\x00\x00'
p68
tp69
Rp70
aI302
aI306
aI111
aI75
aI321
aI257
ag1
(g5
S'\x8f\x00\x00\x00'
p71
tp72
Rp73
aI161
aI140
aI327
aI323
aI318
aI289
ag1
(g5
S'_\x00\x00\x00'
p74
tp75
Rp76
aI161
aI265
ag1
(g5
S']\x00\x00\x00'
p77
tp78
Rp79
aI140
aI203
aI160
aI163
aI287
aI98
aI324
aI214
ag1
(g5
S'D\x01\x00\x00'
p80
tp81
Rp82
aI163
aI305
aI140
aI95
aI245
ag1
(g5
S' \x01\x00\x00'
p83
tp84
Rp85
aI301
ag1
(g5
S'n\x01\x00\x00'
p86
tp87
Rp88
aI94
aI266
aI288
ag1
(g5
S'6\x01\x00\x00'
p89
tp90
Rp91
aI326
aI96
ag1
(g5
S'G\x01\x00\x00'
p92
tp93
Rp94
aI334
aI235
aI236
aI93
aI193
aI119
aI113
a.