(lp0
cnumpy.core.multiarray
scalar
p1
(cnumpy
dtype
p2
(S'i4'
p3
I0
I1
tp4
Rp5
(I3
S'<'
p6
NNNI-1
I-1
I0
tp7
bS'B\x00\x00\x00'
p8
tp9
Rp10
aI193
aI214
aI235
aI235
aI321
aI193
aI235
aI214
aI93
aI235
aI235
aI236
aI235
aI193
ag1
(g5
S'\xd6\x00\x00\x00'
p11
tp12
Rp13
aI236
aI214
ag1
(g5
S'\xd6\x00\x00\x00'
p14
tp15
Rp16
aI193
aI256
aI192
aI193
aI256
aI235
aI214
aI193
aI235
ag1
(g5
S'\x9a\x00\x00\x00'
p17
tp18
Rp19
aI109
aI323
aI94
aI214
aI318
aI193
aI193
aI172
aI364
aI214
aI322
aI214
ag1
(g5
S'\xeb\x00\x00\x00'
p20
tp21
Rp22
aI193
ag1
(g5
S'\x85\x00\x00\x00'
p23
tp24
Rp25
aI193
ag1
(g5
S'\x84\x00\x00\x00'
p26
tp27
Rp28
aI214
aI172
aI277
aI195
ag1
(g5
S'\xad\x00\x00\x00'
p29
tp30
Rp31
aI235
aI192
aI151
aI193
aI235
aI193
aI214
aI172
ag1
(g5
S' \x01\x00\x00'
p32
tp33
Rp34
ag1
(g5
S'C\x01\x00\x00'
p35
tp36
Rp37
ag1
(g5
S'\x80\x01\x00\x00'
p38
tp39
Rp40
ag1
(g5
S'3\x00\x00\x00'
p41
tp42
Rp43
aI192
aI214
aI214
ag1
(g5
S'\x00\x01\x00\x00'
p44
tp45
Rp46
aI151
aI193
aI365
aI214
ag1
(g5
S'2\x00\x00\x00'
p47
tp48
Rp49
aI235
aI95
aI193
ag1
(g5
S'\x83\x01\x00\x00'
p50
tp51
Rp52
aI235
ag1
(g5
S'\x98\x00\x00\x00'
p53
tp54
Rp55
aI214
aI214
aI363
ag1
(g5
S'C\x01\x00\x00'
p56
tp57
Rp58
aI214
aI324
aI193
aI256
ag1
(g5
S'C\x01\x00\x00'
p59
tp60
Rp61
aI214
ag1
(g5
S'\x80\x01\x00\x00'
p62
tp63
Rp64
aI214
aI235
ag1
(g5
S'\xe8\x00\x00\x00'
p65
tp66
Rp67
aI214
ag1
(g5
S'\xaf\x00\x00\x00'
p68
tp69
Rp70
aI235
ag1
(g5
S'\xd6\x00\x00\x00'
p71
tp72
Rp73
aI235
aI172
aI214
aI214
a.