(lp0
cnumpy.core.multiarray
scalar
p1
(cnumpy
dtype
p2
(S'i4'
p3
I0
I1
tp4
Rp5
(I3
S'<'
p6
NNNI-1
I-1
I0
tp7
bS'F\x01\x00\x00'
p8
tp9
Rp10
aI94
aI92
ag1
(g5
S'q\x00\x00\x00'
p11
tp12
Rp13
ag1
(g5
S'_\x00\x00\x00'
p14
tp15
Rp16
aI93
ag1
(g5
S'G\x01\x00\x00'
p17
tp18
Rp19
aI193
aI214
ag1
(g5
S'G\x01\x00\x00'
p20
tp21
Rp22
aI324
ag1
(g5
S'^\x00\x00\x00'
p23
tp24
Rp25
ag1
(g5
S'F\x01\x00\x00'
p26
tp27
Rp28
ag1
(g5
S'F\x01\x00\x00'
p29
tp30
Rp31
aI324
ag1
(g5
S'_\x00\x00\x00'
p32
tp33
Rp34
aI298
aI91
aI323
ag1
(g5
S'`\x00\x00\x00'
p35
tp36
Rp37
aI286
aI235
aI214
aI322
aI277
ag1
(g5
S'2\x01\x00\x00'
p38
tp39
Rp40
aI324
ag1
(g5
S'_\x00\x00\x00'
p41
tp42
Rp43
aI256
aI281
ag1
(g5
S'm\x01\x00\x00'
p44
tp45
Rp46
ag1
(g5
S'Y\x01\x00\x00'
p47
tp48
Rp49
ag1
(g5
S'-\x01\x00\x00'
p50
tp51
Rp52
ag1
(g5
S'F\x01\x00\x00'
p53
tp54
Rp55
aI327
ag1
(g5
S'F\x01\x00\x00'
p56
tp57
Rp58
aI154
aI289
aI111
aI161
aI235
aI161
aI235
ag1
(g5
S'b\x00\x00\x00'
p59
tp60
Rp61
ag1
(g5
S']\x00\x00\x00'
p62
tp63
Rp64
aI235
aI256
aI193
aI344
aI160
aI235
aI96
aI280
aI132
aI112
ag1
(g5
S'a\x00\x00\x00'
p65
tp66
Rp67
ag1
(g5
S'F\x01\x00\x00'
p68
tp69
Rp70
ag1
(g5
S'W\x01\x00\x00'
p71
tp72
Rp73
ag1
(g5
S']\x00\x00\x00'
p74
tp75
Rp76
aI172
ag1
(g5
S'\x86\x00\x00\x00'
p77
tp78
Rp79
aI325
aI257
aI173
aI119
ag1
(g5
S'a\x00\x00\x00'
p80
tp81
Rp82
ag1
(g5
S'D\x01\x00\x00'
p83
tp84
Rp85
aI303
aI95
aI90
ag1
(g5
S'`\x00\x00\x00'
p86
tp87
Rp88
aI54
aI322
aI256
aI112
aI288
aI214
aI287
ag1
(g5
S'^\x00\x00\x00'
p89
tp90
Rp91
ag1
(g5
S'G\x01\x00\x00'
p92
tp93
Rp94
aI301
aI95
aI326
aI323
ag1
(g5
S'.\x01\x00\x00'
p95
tp96
Rp97
ag1
(g5
S'F\x01\x00\x00'
p98
tp99
Rp100
aI288
aI300
ag1
(g5
S'\x00\x01\x00\x00'
p101
tp102
Rp103
ag1
(g5
S'E\x01\x00\x00'
p104
tp105
Rp106
ag1
(g5
S'E\x01\x00\x00'
p107
tp108
Rp109
aI117
aI307
aI32
aI288
aI306
aI321
aI162
aI95
aI93
a.