(lp0
I75
aI97
aI114
acnumpy.core.multiarray
scalar
p1
(cnumpy
dtype
p2
(S'i4'
p3
I0
I1
tp4
Rp5
(I3
S'<'
p6
NNNI-1
I-1
I0
tp7
bS'q\x00\x00\x00'
p8
tp9
Rp10
ag1
(g5
S'\x8c\x00\x00\x00'
p11
tp12
Rp13
aI116
aI95
aI95
ag1
(g5
S'r\x00\x00\x00'
p14
tp15
Rp16
aI93
aI97
aI92
aI139
ag1
(g5
S'w\x00\x00\x00'
p17
tp18
Rp19
aI93
aI138
aI119
aI114
aI116
aI118
aI49
aI94
ag1
(g5
S'u\x00\x00\x00'
p20
tp21
Rp22
ag1
(g5
S't\x00\x00\x00'
p23
tp24
Rp25
ag1
(g5
S'_\x00\x00\x00'
p26
tp27
Rp28
aI160
aI71
aI93
ag1
(g5
S'O\x00\x00\x00'
p29
tp30
Rp31
aI116
aI114
aI116
aI92
ag1
(g5
S'a\x00\x00\x00'
p32
tp33
Rp34
aI95
ag1
(g5
S'`\x00\x00\x00'
p35
tp36
Rp37
aI114
ag1
(g5
S'\xa2\x00\x00\x00'
p38
tp39
Rp40
aI95
ag1
(g5
S'\x8c\x00\x00\x00'
p41
tp42
Rp43
aI138
aI138
aI116
aI96
aI137
aI114
ag1
(g5
S'\x8a\x00\x00\x00'
p44
tp45
Rp46
ag1
(g5
S'\x8c\x00\x00\x00'
p47
tp48
Rp49
aI95
aI95
ag1
(g5
S']\x00\x00\x00'
p50
tp51
Rp52
aI138
aI161
ag1
(g5
S'_\x00\x00\x00'
p53
tp54
Rp55
aI138
aI161
ag1
(g5
S'\x07\x00\x00\x00'
p56
tp57
Rp58
aI95
ag1
(g5
S's\x00\x00\x00'
p59
tp60
Rp61
aI94
aI139
aI115
ag1
(g5
S'\x8c\x00\x00\x00'
p62
tp63
Rp64
ag1
(g5
S'`\x00\x00\x00'
p65
tp66
Rp67
ag1
(g5
S't\x00\x00\x00'
p68
tp69
Rp70
ag1
(g5
S't\x00\x00\x00'
p71
tp72
Rp73
aI117
aI138
ag1
(g5
S']\x00\x00\x00'
p74
tp75
Rp76
aI93
aI95
ag1
(g5
S'r\x00\x00\x00'
p77
tp78
Rp79
aI138
ag1
(g5
S'{\x00\x00\x00'
p80
tp81
Rp82
aI74
aI117
ag1
(g5
S't\x00\x00\x00'
p83
tp84
Rp85
aI95
ag1
(g5
S'_\x00\x00\x00'
p86
tp87
Rp88
aI93
ag1
(g5
S'\x9f\x00\x00\x00'
p89
tp90
Rp91
aI116
ag1
(g5
S'r\x00\x00\x00'
p92
tp93
Rp94
ag1
(g5
S'_\x00\x00\x00'
p95
tp96
Rp97
aI93
aI116
aI94
aI116
ag1
(g5
S'H\x00\x00\x00'
p98
tp99
Rp100
aI162
aI75
aI93
ag1
(g5
S']\x00\x00\x00'
p101
tp102
Rp103
ag1
(g5
S'_\x00\x00\x00'
p104
tp105
Rp106
aI71
aI94
ag1
(g5
S'J\x00\x00\x00'
p107
tp108
Rp109
aI114
ag1
(g5
S'\x86\x00\x00\x00'
p110
tp111
Rp112
ag1
(g5
S'r\x00\x00\x00'
p113
tp114
Rp115
a.