(lp0
I149
acnumpy.core.multiarray
scalar
p1
(cnumpy
dtype
p2
(S'i4'
p3
I0
I1
tp4
Rp5
(I3
S'<'
p6
NNNI-1
I-1
I0
tp7
bS'\xc1\x00\x00\x00'
p8
tp9
Rp10
aI235
aI235
ag1
(g5
S'\x01\x01\x00\x00'
p11
tp12
Rp13
aI321
aI193
aI235
aI214
aI93
aI256
aI235
aI236
aI214
aI214
aI193
aI236
aI214
aI193
aI193
aI324
aI192
aI214
ag1
(g5
S'D\x01\x00\x00'
p14
tp15
Rp16
aI235
aI193
aI214
aI193
aI152
aI88
ag1
(g5
S'D\x01\x00\x00'
p17
tp18
Rp19
ag1
(g5
S']\x00\x00\x00'
p20
tp21
Rp22
aI235
aI318
aI214
aI193
aI193
aI302
aI235
aI342
aI214
aI235
aI214
aI214
aI193
ag1
(g5
S'\x85\x00\x00\x00'
p23
tp24
Rp25
aI214
aI151
aI324
aI194
ag1
(g5
S'\xad\x00\x00\x00'
p26
tp27
Rp28
aI259
aI172
ag1
(g5
S'\x80\x01\x00\x00'
p29
tp30
Rp31
aI193
ag1
(g5
S'\xeb\x00\x00\x00'
p32
tp33
Rp34
aI193
aI214
ag1
(g5
S'\xac\x00\x00\x00'
p35
tp36
Rp37
ag1
(g5
S' \x01\x00\x00'
p38
tp39
Rp40
ag1
(g5
S'E\x01\x00\x00'
p41
tp42
Rp43
ag1
(g5
S'\x94\x01\x00\x00'
p44
tp45
Rp46
ag1
(g5
S']\x00\x00\x00'
p47
tp48
Rp49
aI191
aI214
aI214
ag1
(g5
S"'\x01\x00\x00"
p50
tp51
Rp52
aI95
aI193
aI324
aI214
ag1
(g5
S'p\x00\x00\x00'
p53
tp54
Rp55
aI256
ag1
(g5
S']\x00\x00\x00'
p56
tp57
Rp58
aI193
ag1
(g5
S'\x83\x01\x00\x00'
p59
tp60
Rp61
aI256
ag1
(g5
S'\x84\x00\x00\x00'
p62
tp63
Rp64
aI193
aI256
ag1
(g5
S'\x80\x01\x00\x00'
p65
tp66
Rp67
ag1
(g5
S'.\x01\x00\x00'
p68
tp69
Rp70
aI172
aI325
aI193
aI193
ag1
(g5
S'C\x01\x00\x00'
p71
tp72
Rp73
aI193
ag1
(g5
S'B\x01\x00\x00'
p74
tp75
Rp76
aI235
aI235
ag1
(g5
S'(\x01\x00\x00'
p77
tp78
Rp79
ag1
(g5
S'\xd6\x00\x00\x00'
p80
tp81
Rp82
ag1
(g5
S'\xae\x00\x00\x00'
p83
tp84
Rp85
aI235
ag1
(g5
S'\xd6\x00\x00\x00'
p86
tp87
Rp88
ag1
(g5
S'\xeb\x00\x00\x00'
p89
tp90
Rp91
aI92
ag1
(g5
S'\xd6\x00\x00\x00'
p92
tp93
Rp94
aI214
a.