(lp0
I172
aI250
aI126
aI296
aI261
aI226
aI174
acnumpy.core.multiarray
scalar
p1
(cnumpy
dtype
p2
(S'i4'
p3
I0
I1
tp4
Rp5
(I3
S'<'
p6
NNNI-1
I-1
I0
tp7
bS'\x06\x01\x00\x00'
p8
tp9
Rp10
ag1
(g5
S'\x82\x00\x00\x00'
p11
tp12
Rp13
aI235
aI290
ag1
(g5
S'\xec\x00\x00\x00'
p14
tp15
Rp16
aI235
aI252
aI253
aI218
ag1
(g5
S'\x82\x00\x00\x00'
p17
tp18
Rp19
ag1
(g5
S'\xb1\x00\x00\x00'
p20
tp21
Rp22
aI129
ag1
(g5
S'\xea\x00\x00\x00'
p23
tp24
Rp25
aI228
ag1
(g5
S'\x88\x00\x00\x00'
p26
tp27
Rp28
aI135
aI101
aI139
aI192
aI405
ag1
(g5
S'?\x01\x00\x00'
p29
tp30
Rp31
aI187
a.