(lp0
I97
aI97
aI114
acnumpy.core.multiarray
scalar
p1
(cnumpy
dtype
p2
(S'i4'
p3
I0
I1
tp4
Rp5
(I3
S'<'
p6
NNNI-1
I-1
I0
tp7
bS't\x00\x00\x00'
p8
tp9
Rp10
aI116
aI95
aI115
aI117
ag1
(g5
S'u\x00\x00\x00'
p11
tp12
Rp13
aI118
ag1
(g5
S'a\x00\x00\x00'
p14
tp15
Rp16
aI95
aI139
ag1
(g5
S'\xa1\x00\x00\x00'
p17
tp18
Rp19
aI141
ag1
(g5
S'\x8a\x00\x00\x00'
p20
tp21
Rp22
aI93
ag1
(g5
S't\x00\x00\x00'
p23
tp24
Rp25
aI51
aI118
ag1
(g5
S'0\x00\x00\x00'
p26
tp27
Rp28
aI94
aI95
aI95
aI95
aI137
aI116
ag1
(g5
S'b\x00\x00\x00'
p29
tp30
Rp31
ag1
(g5
S'O\x00\x00\x00'
p32
tp33
Rp34
ag1
(g5
S's\x00\x00\x00'
p35
tp36
Rp37
aI94
aI116
ag1
(g5
S'\x8b\x00\x00\x00'
p38
tp39
Rp40
aI94
aI115
aI76
ag1
(g5
S'r\x00\x00\x00'
p41
tp42
Rp43
aI162
aI117
aI140
aI117
aI138
aI116
aI96
aI139
aI119
aI138
ag1
(g5
S't\x00\x00\x00'
p44
tp45
Rp46
ag1
(g5
S'x\x00\x00\x00'
p47
tp48
Rp49
aI181
aI89
aI162
aI203
aI115
aI160
aI161
aI93
ag1
(g5
S'_\x00\x00\x00'
p50
tp51
Rp52
ag1
(g5
S'\x8b\x00\x00\x00'
p53
tp54
Rp55
aI94
ag1
(g5
S'v\x00\x00\x00'
p56
tp57
Rp58
ag1
(g5
S't\x00\x00\x00'
p59
tp60
Rp61
aI140
aI96
aI98
ag1
(g5
S't\x00\x00\x00'
p62
tp63
Rp64
aI117
aI95
aI120
aI117
ag1
(g5
S'^\x00\x00\x00'
p65
tp66
Rp67
aI116
aI138
ag1
(g5
S'O\x00\x00\x00'
p68
tp69
Rp70
aI96
aI117
aI117
ag1
(g5
S'e\x00\x00\x00'
p71
tp72
Rp73
aI95
aI113
ag1
(g5
S'\x9f\x00\x00\x00'
p74
tp75
Rp76
aI115
ag1
(g5
S'_\x00\x00\x00'
p77
tp78
Rp79
aI95
aI95
ag1
(g5
S'_\x00\x00\x00'
p80
tp81
Rp82
ag1
(g5
S'u\x00\x00\x00'
p83
tp84
Rp85
ag1
(g5
S'\x8b\x00\x00\x00'
p86
tp87
Rp88
aI116
aI183
aI112
aI94
aI140
ag1
(g5
S'_\x00\x00\x00'
p89
tp90
Rp91
aI115
aI117
ag1
(g5
S'a\x00\x00\x00'
p92
tp93
Rp94
aI117
aI138
ag1
(g5
S's\x00\x00\x00'
p95
tp96
Rp97
a.