(lp0
cnumpy.core.multiarray
scalar
p1
(cnumpy
dtype
p2
(S'i4'
p3
I0
I1
tp4
Rp5
(I3
S'<'
p6
NNNI-1
I-1
I0
tp7
bS'(\x01\x00\x00'
p8
tp9
Rp10
ag1
(g5
S'J\x00\x00\x00'
p11
tp12
Rp13
ag1
(g5
S'u\x00\x00\x00'
p14
tp15
Rp16
ag1
(g5
S'\xb6\x00\x00\x00'
p17
tp18
Rp19
aI132
ag1
(g5
S'\x8c\x00\x00\x00'
p20
tp21
Rp22
ag1
(g5
S'\x1e\x01\x00\x00'
p23
tp24
Rp25
aI235
ag1
(g5
S'\x8b\x00\x00\x00'
p26
tp27
Rp28
aI305
aI303
aI141
ag1
(g5
S'F\x01\x00\x00'
p29
tp30
Rp31
aI286
aI345
ag1
(g5
S'`\x00\x00\x00'
p32
tp33
Rp34
aI286
ag1
(g5
S']\x00\x00\x00'
p35
tp36
Rp37
aI308
aI96
ag1
(g5
S'[\x01\x00\x00'
p38
tp39
Rp40
aI193
ag1
(g5
S'!\x01\x00\x00'
p41
tp42
Rp43
ag1
(g5
S'4\x01\x00\x00'
p44
tp45
Rp46
aI256
aI348
aI305
ag1
(g5
S'u\x00\x00\x00'
p47
tp48
Rp49
aI288
aI321
aI327
aI236
aI276
aI277
aI265
aI326
aI161
aI286
aI90
aI161
aI235
ag1
(g5
S'\x17\x01\x00\x00'
p50
tp51
Rp52
aI245
aI76
ag1
(g5
S'\x0e\x00\x00\x00'
p53
tp54
Rp55
aI237
aI163
aI180
ag1
(g5
S'8\x00\x00\x00'
p56
tp57
Rp58
ag1
(g5
S'K\x00\x00\x00'
p59
tp60
Rp61
ag1
(g5
S'\x08\x01\x00\x00'
p62
tp63
Rp64
ag1
(g5
S'\xb6\x00\x00\x00'
p65
tp66
Rp67
ag1
(g5
S'F\x01\x00\x00'
p68
tp69
Rp70
ag1
(g5
S'G\x01\x00\x00'
p71
tp72
Rp73
aI111
ag1
(g5
S'K\x00\x00\x00'
p74
tp75
Rp76
aI321
aI257
ag1
(g5
S'\xa3\x00\x00\x00'
p77
tp78
Rp79
aI161
ag1
(g5
S'\xa1\x00\x00\x00'
p80
tp81
Rp82
ag1
(g5
S'G\x01\x00\x00'
p83
tp84
Rp85
ag1
(g5
S'\x1e\x01\x00\x00'
p86
tp87
Rp88
aI318
aI289
aI96
aI161
ag1
(g5
S'\t\x01\x00\x00'
p89
tp90
Rp91
ag1
(g5
S']\x00\x00\x00'
p92
tp93
Rp94
ag1
(g5
S'e\x00\x00\x00'
p95
tp96
Rp97
aI203
aI160
aI163
aI288
aI98
aI325
aI214
ag1
(g5
S'/\x01\x00\x00'
p98
tp99
Rp100
aI163
aI305
ag1
(g5
S'v\x00\x00\x00'
p101
tp102
Rp103
aI142
aI245
aI307
aI301
aI326
aI137
aI266
aI288
ag1
(g5
S'!\x01\x00\x00'
p104
tp105
Rp106
aI327
aI70
aI307
aI334
ag1
(g5
S'\x9f\x00\x00\x00'
p107
tp108
Rp109
aI236
aI95
aI193
ag1
(g5
S'`\x00\x00\x00'
p110
tp111
Rp112
ag1
(g5
S'G\x00\x00\x00'
p113
tp114
Rp115
a.