(lp0
I114
aI95
acnumpy.core.multiarray
scalar
p1
(cnumpy
dtype
p2
(S'i4'
p3
I0
I1
tp4
Rp5
(I3
S'<'
p6
NNNI-1
I-1
I0
tp7
bS'r\x00\x00\x00'
p8
tp9
Rp10
ag1
(g5
S'_\x00\x00\x00'
p11
tp12
Rp13
aI113
aI116
ag1
(g5
S't\x00\x00\x00'
p14
tp15
Rp16
aI93
aI92
ag1
(g5
S'u\x00\x00\x00'
p17
tp18
Rp19
ag1
(g5
S'`\x00\x00\x00'
p20
tp21
Rp22
aI95
aI140
aI119
ag1
(g5
S'`\x00\x00\x00'
p23
tp24
Rp25
aI138
aI119
ag1
(g5
S'x\x00\x00\x00'
p26
tp27
Rp28
aI114
ag1
(g5
S'_\x00\x00\x00'
p29
tp30
Rp31
aI75
ag1
(g5
S']\x00\x00\x00'
p32
tp33
Rp34
aI94
ag1
(g5
S't\x00\x00\x00'
p35
tp36
Rp37
aI92
aI114
ag1
(g5
S'\x8b\x00\x00\x00'
p38
tp39
Rp40
aI94
aI95
ag1
(g5
S'_\x00\x00\x00'
p41
tp42
Rp43
aI114
aI94
aI139
aI97
aI95
aI76
aI114
aI119
ag1
(g5
S'^\x00\x00\x00'
p44
tp45
Rp46
ag1
(g5
S'u\x00\x00\x00'
p47
tp48
Rp49
ag1
(g5
S'^\x00\x00\x00'
p50
tp51
Rp52
aI138
aI116
ag1
(g5
S't\x00\x00\x00'
p53
tp54
Rp55
aI94
aI94
ag1
(g5
S'\x8a\x00\x00\x00'
p56
tp57
Rp58
aI114
aI94
aI137
aI116
aI139
ag1
(g5
S'\xa1\x00\x00\x00'
p59
tp60
Rp61
aI95
aI95
ag1
(g5
S'H\x00\x00\x00'
p62
tp63
Rp64
ag1
(g5
S's\x00\x00\x00'
p65
tp66
Rp67
aI95
ag1
(g5
S's\x00\x00\x00'
p68
tp69
Rp70
ag1
(g5
S'^\x00\x00\x00'
p71
tp72
Rp73
aI93
aI116
aI115
aI96
aI114
ag1
(g5
S'`\x00\x00\x00'
p74
tp75
Rp76
aI95
aI138
aI96
aI93
ag1
(g5
S']\x00\x00\x00'
p77
tp78
Rp79
aI140
ag1
(g5
S't\x00\x00\x00'
p80
tp81
Rp82
ag1
(g5
S']\x00\x00\x00'
p83
tp84
Rp85
aI116
aI118
aI95
aI95
aI94
aI93
ag1
(g5
S'u\x00\x00\x00'
p86
tp87
Rp88
ag1
(g5
S's\x00\x00\x00'
p89
tp90
Rp91
ag1
(g5
S'r\x00\x00\x00'
p92
tp93
Rp94
ag1
(g5
S'_\x00\x00\x00'
p95
tp96
Rp97
ag1
(g5
S'r\x00\x00\x00'
p98
tp99
Rp100
aI95
aI94
aI139
aI93
aI138
aI94
aI117
aI116
ag1
(g5
S'_\x00\x00\x00'
p101
tp102
Rp103
aI95
ag1
(g5
S'^\x00\x00\x00'
p104
tp105
Rp106
aI118
ag1
(g5
S't\x00\x00\x00'
p107
tp108
Rp109
ag1
(g5
S't\x00\x00\x00'
p110
tp111
Rp112
ag1
(g5
S'r\x00\x00\x00'
p113
tp114
Rp115
a.