(lp0
I94
aI97
aI117
aI132
aI116
aI116
aI94
aI117
acnumpy.core.multiarray
scalar
p1
(cnumpy
dtype
p2
(S'i4'
p3
I0
I1
tp4
Rp5
(I3
S'<'
p6
NNNI-1
I-1
I0
tp7
bS'r\x00\x00\x00'
p8
tp9
Rp10
aI118
aI97
aI95
aI139
ag1
(g5
S'w\x00\x00\x00'
p11
tp12
Rp13
aI93
aI117
aI119
aI114
aI51
aI118
ag1
(g5
S'\\\x00\x00\x00'
p14
tp15
Rp16
aI94
aI95
ag1
(g5
S't\x00\x00\x00'
p17
tp18
Rp19
aI95
ag1
(g5
S'\x89\x00\x00\x00'
p20
tp21
Rp22
aI116
aI99
ag1
(g5
S'O\x00\x00\x00'
p23
tp24
Rp25
ag1
(g5
S'\x89\x00\x00\x00'
p26
tp27
Rp28
aI94
aI116
ag1
(g5
S'\x8c\x00\x00\x00'
p29
tp30
Rp31
ag1
(g5
S'a\x00\x00\x00'
p32
tp33
Rp34
aI115
aI76
aI114
ag1
(g5
S'\xa2\x00\x00\x00'
p35
tp36
Rp37
aI117
ag1
(g5
S'\x8c\x00\x00\x00'
p38
tp39
Rp40
aI141
aI138
aI116
aI96
ag1
(g5
S'\x8b\x00\x00\x00'
p41
tp42
Rp43
aI119
ag1
(g5
S'\x8a\x00\x00\x00'
p44
tp45
Rp46
ag1
(g5
S'\x8c\x00\x00\x00'
p47
tp48
Rp49
aI120
aI183
ag1
(g5
S'Y\x00\x00\x00'
p50
tp51
Rp52
aI162
aI161
aI115
aI138
aI161
ag1
(g5
S'\x07\x00\x00\x00'
p53
tp54
Rp55
aI95
ag1
(g5
S's\x00\x00\x00'
p56
tp57
Rp58
aI94
aI94
aI115
ag1
(g5
S'\x8c\x00\x00\x00'
p59
tp60
Rp61
aI96
ag1
(g5
S't\x00\x00\x00'
p62
tp63
Rp64
ag1
(g5
S't\x00\x00\x00'
p65
tp66
Rp67
aI117
aI122
aI120
aI117
ag1
(g5
S't\x00\x00\x00'
p68
tp69
Rp70
aI78
aI138
ag1
(g5
S'{\x00\x00\x00'
p71
tp72
Rp73
aI74
aI140
aI117
aI101
ag1
(g5
S'_\x00\x00\x00'
p74
tp75
Rp76
aI113
ag1
(g5
S'\x9f\x00\x00\x00'
p77
tp78
Rp79
aI116
aI117
aI95
ag1
(g5
S'r\x00\x00\x00'
p80
tp81
Rp82
aI95
aI118
aI117
ag1
(g5
S'H\x00\x00\x00'
p83
tp84
Rp85
aI183
aI121
aI94
aI140
ag1
(g5
S'_\x00\x00\x00'
p86
tp87
Rp88
aI71
aI117
ag1
(g5
S'J\x00\x00\x00'
p89
tp90
Rp91
aI117
aI138
ag1
(g5
S'r\x00\x00\x00'
p92
tp93
Rp94
a.