(lp0
cnumpy.core.multiarray
scalar
p1
(cnumpy
dtype
p2
(S'i4'
p3
I0
I1
tp4
Rp5
(I3
S'<'
p6
NNNI-1
I-1
I0
tp7
bS'\xae\x00\x00\x00'
p8
tp9
Rp10
aI173
aI174
aI173
ag1
(g5
S'\xaf\x00\x00\x00'
p11
tp12
Rp13
aI172
ag1
(g5
S'\xd5\x00\x00\x00'
p14
tp15
Rp16
aI173
aI216
ag1
(g5
S'\xad\x00\x00\x00'
p17
tp18
Rp19
aI173
aI174
aI214
aI173
ag1
(g5
S'\xd7\x00\x00\x00'
p20
tp21
Rp22
aI173
ag1
(g5
S'\xad\x00\x00\x00'
p23
tp24
Rp25
ag1
(g5
S'\xd7\x00\x00\x00'
p26
tp27
Rp28
aI213
aI173
aI176
aI173
aI216
aI173
aI173
aI173
ag1
(g5
S'\xad\x00\x00\x00'
p29
tp30
Rp31
ag1
(g5
S'\xd6\x00\x00\x00'
p32
tp33
Rp34
aI219
aI216
a.