(lp0
I66
aI193
aI235
aI235
aI235
aI321
aI193
aI235
aI214
aI93
aI114
aI235
aI236
aI214
aI193
acnumpy.core.multiarray
scalar
p1
(cnumpy
dtype
p2
(S'i4'
p3
I0
I1
tp4
Rp5
(I3
S'<'
p6
NNNI-1
I-1
I0
tp7
bS'\xd6\x00\x00\x00'
p8
tp9
Rp10
aI236
aI214
ag1
(g5
S'\xd6\x00\x00\x00'
p11
tp12
Rp13
aI193
aI256
aI192
aI193
aI256
aI235
aI214
aI193
aI235
aI153
aI87
aI323
aI94
aI214
aI318
aI193
aI193
aI175
aI364
aI235
aI322
aI214
aI235
aI193
aI214
aI193
ag1
(g5
S'\\\x00\x00\x00'
p14
tp15
Rp16
aI214
aI172
aI324
aI113
ag1
(g5
S'\x98\x00\x00\x00'
p17
tp18
Rp19
aI235
aI172
aI151
aI193
aI235
aI193
aI214
aI172
ag1
(g5
S' \x01\x00\x00'
p20
tp21
Rp22
ag1
(g5
S'C\x01\x00\x00'
p23
tp24
Rp25
aI382
aI93
aI192
aI214
aI214
ag1
(g5
S'/\x01\x00\x00'
p26
tp27
Rp28
aI89
aI193
aI365
aI214
ag1
(g5
S'2\x00\x00\x00'
p29
tp30
Rp31
aI235
ag1
(g5
S']\x00\x00\x00'
p32
tp33
Rp34
aI193
ag1
(g5
S'\x83\x01\x00\x00'
p35
tp36
Rp37
ag1
(g5
S'+\x01\x00\x00'
p38
tp39
Rp40
aI131
aI193
aI256
aI363
aI193
aI214
aI324
aI193
aI256
ag1
(g5
S'C\x01\x00\x00'
p41
tp42
Rp43
aI214
ag1
(g5
S'B\x01\x00\x00'
p44
tp45
Rp46
aI214
aI235
aI281
aI214
aI193
aI235
ag1
(g5
S'\xd6\x00\x00\x00'
p47
tp48
Rp49
aI235
aI132
aI214
aI214
a.